libglc.so.2 libglc2 #MINVER#
 _Z23qStringComparisonHelperRK7QStringPKc@Base 2.2.0
 _Z6qDebugv@Base 2.2.0
 _ZGVZ13qvariant_castI8QVariantET_RKS0_E3vid@Base 2.2.0
 _ZN10GLC_Camera12rotateAroundERK12GLC_Vector3dRKdS2_@Base 2.2.0
 _ZN10GLC_Camera12setTargetCamERK12GLC_Vector3d@Base 2.2.0
 _ZN10GLC_Camera13createMatCompEv@Base 2.2.0
 _ZN10GLC_Camera16setDistEyeTargetEd@Base 2.2.0
 _ZN10GLC_Camera16setDistTargetEyeEd@Base 2.2.0
 _ZN10GLC_Camera18rotateAroundTargetERK12GLC_Vector3dRKd@Base 2.2.0
 _ZN10GLC_Camera3panE12GLC_Vector3d@Base 2.2.0
 _ZN10GLC_Camera4moveERK13GLC_Matrix4x4@Base 2.2.0
 _ZN10GLC_Camera4zoomEd@Base 2.2.0
 _ZN10GLC_Camera5orbitE12GLC_Vector3dS0_@Base 2.2.0
 _ZN10GLC_Camera6setCamE12GLC_Vector3dS0_S0_@Base 2.2.0
 _ZN10GLC_Camera6setCamERKS_@Base 2.2.0
 _ZN10GLC_Camera8setUpCamERK12GLC_Vector3d@Base 2.2.0
 _ZN10GLC_Camera9glExecuteEv@Base 2.2.0
 _ZN10GLC_Camera9setEyeCamERK12GLC_Vector3d@Base 2.2.0
 _ZN10GLC_Camera9translateERK12GLC_Vector3d@Base 2.2.0
 _ZN10GLC_CameraC1ERK12GLC_Vector3dS2_S2_@Base 2.2.0
 _ZN10GLC_CameraC1ERKS_@Base 2.2.0
 _ZN10GLC_CameraC1Ev@Base 2.2.0
 _ZN10GLC_CameraC2ERK12GLC_Vector3dS2_S2_@Base 2.2.0
 _ZN10GLC_CameraC2ERKS_@Base 2.2.0
 _ZN10GLC_CameraC2Ev@Base 2.2.0
 _ZN10GLC_CameraD0Ev@Base 2.2.0
 _ZN10GLC_CameraD1Ev@Base 2.2.0
 _ZN10GLC_CameraaSERKS_@Base 2.2.0
 _ZN10GLC_Circle10createWireEv@Base 2.2.0
 _ZN10GLC_Circle11boundingBoxEv@Base 2.2.0
 _ZN10GLC_Circle11setDiameterEd@Base 2.2.0
 _ZN10GLC_Circle13setDiscretionEi@Base 2.2.0
 _ZN10GLC_Circle6glDrawERK20GLC_RenderProperties@Base 2.2.0
 _ZN10GLC_Circle8setAngleEd@Base 2.2.0
 _ZN10GLC_Circle9setRadiusEd@Base 2.2.0
 _ZN10GLC_CircleC1ERKS_@Base 2.2.0
 _ZN10GLC_CircleC1ERKdd@Base 2.2.0
 _ZN10GLC_CircleC2ERKS_@Base 2.2.0
 _ZN10GLC_CircleC2ERKdd@Base 2.2.0
 _ZN10GLC_CircleD0Ev@Base 2.2.0
 _ZN10GLC_CircleD1Ev@Base 2.2.0
 _ZN10GLC_CircleD2Ev@Base 2.2.0
 _ZN10GLC_Line3dC1ERK12GLC_Vector3dS2_@Base 2.2.0
 _ZN10GLC_Line3dC1ERKS_@Base 2.2.0
 _ZN10GLC_Line3dC1Ev@Base 2.2.0
 _ZN10GLC_Line3dC2ERK12GLC_Vector3dS2_@Base 2.2.0
 _ZN10GLC_Line3dC2ERKS_@Base 2.2.0
 _ZN10GLC_Line3dC2Ev@Base 2.2.0
 _ZN10GLC_Line3dD1Ev@Base 2.2.0
 _ZN10GLC_Line3dD2Ev@Base 2.2.0
 _ZN10GLC_Object5setIdEj@Base 2.2.0
 _ZN10GLC_Object7setNameERK7QString@Base 2.2.0
 _ZN10GLC_ObjectC1ERK7QString@Base 2.2.0
 _ZN10GLC_ObjectC1ERKS_@Base 2.2.0
 _ZN10GLC_ObjectC2ERK7QString@Base 2.2.0
 _ZN10GLC_ObjectC2ERKS_@Base 2.2.0
 _ZN10GLC_ObjectD0Ev@Base 2.2.0
 _ZN10GLC_ObjectD1Ev@Base 2.2.0
 _ZN10GLC_ObjectD2Ev@Base 2.2.0
 _ZN10GLC_ObjectaSERKS_@Base 2.2.0
 _ZN10GLC_Octree12defaultDepthEv@Base 2.2.0
 _ZN10GLC_Octree15setDefaultDepthEi@Base 2.2.0
 _ZN10GLC_Octree20m_DefaultOctreeDepthE@Base 2.2.0
 _ZN10GLC_Octree21createBoxWithMaterialEP20GLC_3DViewCollectionP14GLC_OctreeNodeP12GLC_Material@Base 2.2.0
 _ZN10GLC_Octree23updateSpacePartitioningEv@Base 2.2.0
 _ZN10GLC_Octree23updateViewableInstancesERK11GLC_Frustum@Base 2.2.0
 _ZN10GLC_Octree26listOfIntersectedInstancesERK15GLC_BoundingBox@Base 2.2.0
 _ZN10GLC_Octree5clearEv@Base 2.2.0
 _ZN10GLC_Octree8setDepthEi@Base 2.2.0
 _ZN10GLC_Octree9createBoxEP12GLC_MaterialP20GLC_3DViewCollection@Base 2.2.0
 _ZN10GLC_OctreeC1EP20GLC_3DViewCollection@Base 2.2.0
 _ZN10GLC_OctreeC1ERKS_@Base 2.2.0
 _ZN10GLC_OctreeC2EP20GLC_3DViewCollection@Base 2.2.0
 _ZN10GLC_OctreeC2ERKS_@Base 2.2.0
 _ZN10GLC_OctreeD0Ev@Base 2.2.0
 _ZN10GLC_OctreeD1Ev@Base 2.2.0
 _ZN10GLC_OctreeD2Ev@Base 2.2.0
 _ZN10GLC_Shader11shaderCountEv@Base 2.2.0
 _ZN10GLC_Shader12deleteShaderEv@Base 2.2.0
 _ZN10GLC_Shader12shaderHandleEj@Base 2.2.0
 _ZN10GLC_Shader13replaceShaderERKS_@Base 2.2.0
 _ZN10GLC_Shader15hasActiveShaderEv@Base 2.2.0
 _ZN10GLC_Shader19currentShaderHandleEv@Base 2.2.0
 _ZN10GLC_Shader19m_ShaderProgramHashE@Base 2.2.0
 _ZN10GLC_Shader19m_ShadingGroupStackE@Base 2.2.0
 _ZN10GLC_Shader23m_CurrentShadingGroupIdE@Base 2.2.0
 _ZN10GLC_Shader26setVertexAndFragmentShaderER5QFileS1_@Base 2.2.0
 _ZN10GLC_Shader30createAndCompileProgrammShaderEv@Base 2.2.0
 _ZN10GLC_Shader3useEj@Base 2.2.0
 _ZN10GLC_Shader3useEv@Base 2.2.0
 _ZN10GLC_Shader5unuseEv@Base 2.2.0
 _ZN10GLC_Shader8asShaderEj@Base 2.2.0
 _ZN10GLC_ShaderC1ER5QFileS1_@Base 2.2.0
 _ZN10GLC_ShaderC1ERKS_@Base 2.2.0
 _ZN10GLC_ShaderC1Ev@Base 2.2.0
 _ZN10GLC_ShaderC2ER5QFileS1_@Base 2.2.0
 _ZN10GLC_ShaderC2ERKS_@Base 2.2.0
 _ZN10GLC_ShaderC2Ev@Base 2.2.0
 _ZN10GLC_ShaderD1Ev@Base 2.2.0
 _ZN10GLC_ShaderD2Ev@Base 2.2.0
 _ZN10GLC_Sphere10createMeshEv@Base 2.2.0
 _ZN10GLC_Sphere11boundingBoxEv@Base 2.2.0
 _ZN10GLC_Sphere13setDiscretionEi@Base 2.2.0
 _ZN10GLC_Sphere9m_ChunkIdE@Base 2.2.0
 _ZN10GLC_Sphere9setRadiusEd@Base 2.2.0
 _ZN10GLC_SphereC1ERKS_@Base 2.2.0
 _ZN10GLC_SphereC1Ed@Base 2.2.0
 _ZN10GLC_SphereC2ERKS_@Base 2.2.0
 _ZN10GLC_SphereC2Ed@Base 2.2.0
 _ZN10GLC_SphereD0Ev@Base 2.2.0
 _ZN10GLC_SphereD1Ev@Base 2.2.0
 _ZN10GLC_SphereD2Ev@Base 2.2.0
 _ZN10QByteArray4dataEv@Base 2.2.0
 _ZN10QByteArrayD1Ev@Base 2.2.0
 _ZN10QuaZipFile10setZipNameERK7QString@Base 2.2.0
 _ZN10QuaZipFile11getFileInfoEP14QuaZipFileInfo@Base 2.2.0
 _ZN10QuaZipFile11qt_metacallEN11QMetaObject4CallEiPPv@Base 2.2.0
 _ZN10QuaZipFile11qt_metacastEPKc@Base 2.2.0
 _ZN10QuaZipFile11setFileNameERK7QStringN6QuaZip15CaseSensitivityE@Base 2.2.0
 _ZN10QuaZipFile16staticMetaObjectE@Base 2.2.0
 _ZN10QuaZipFile4openE6QFlagsIN9QIODevice12OpenModeFlagEE@Base 2.2.0
 _ZN10QuaZipFile4openE6QFlagsIN9QIODevice12OpenModeFlagEEPiS4_bPKc@Base 2.2.0
 _ZN10QuaZipFile4openE6QFlagsIN9QIODevice12OpenModeFlagEERK13QuaZipNewInfoPKcjiibiii@Base 2.2.0
 _ZN10QuaZipFile5closeEv@Base 2.2.0
 _ZN10QuaZipFile6setZipEP6QuaZip@Base 2.2.0
 _ZN10QuaZipFile8readDataEPcx@Base 2.2.0
 _ZN10QuaZipFile9writeDataEPKcx@Base 2.2.0
 _ZN10QuaZipFileC1EP6QuaZipP7QObject@Base 2.2.0
 _ZN10QuaZipFileC1EP7QObject@Base 2.2.0
 _ZN10QuaZipFileC1ERK7QStringP7QObject@Base 2.2.0
 _ZN10QuaZipFileC1ERK7QStringS2_N6QuaZip15CaseSensitivityEP7QObject@Base 2.2.0
 _ZN10QuaZipFileC1Ev@Base 2.2.0
 _ZN10QuaZipFileC2EP6QuaZipP7QObject@Base 2.2.0
 _ZN10QuaZipFileC2EP7QObject@Base 2.2.0
 _ZN10QuaZipFileC2ERK7QStringP7QObject@Base 2.2.0
 _ZN10QuaZipFileC2ERK7QStringS2_N6QuaZip15CaseSensitivityEP7QObject@Base 2.2.0
 _ZN10QuaZipFileC2Ev@Base 2.2.0
 _ZN10QuaZipFileD0Ev@Base 2.2.0
 _ZN10QuaZipFileD1Ev@Base 2.2.0
 _ZN10QuaZipFileD2Ev@Base 2.2.0
 _ZN11GLC_Factory10m_pFactoryE@Base 2.2.0
 _ZN11GLC_Factory11canBeLoadedERK7QString@Base 2.2.0
 _ZN11GLC_Factory11loadPluginsEv@Base 2.2.0
 _ZN11GLC_Factory11qt_metacallEN11QMetaObject4CallEiPPv@Base 2.2.0
 _ZN11GLC_Factory11qt_metacastEPKc@Base 2.2.0
 _ZN11GLC_Factory14loadingHandlerERK7QString@Base 2.2.0
 _ZN11GLC_Factory15createRectangleERK12GLC_Vector3dS2_dd@Base 2.2.0
 _ZN11GLC_Factory15createRectangleEdd@Base 2.2.0
 _ZN11GLC_Factory16createPointCloudERK5QListI12GLC_Vector3dERK6QColor@Base 2.2.0
 _ZN11GLC_Factory16createPointCloudERK5QListI13GLC_Vector3dfERK6QColor@Base 2.2.0
 _ZN11GLC_Factory16createPointCloudERK7QVectorIfERK6QColor@Base 2.2.0
 _ZN11GLC_Factory16staticMetaObjectE@Base 2.2.0
 _ZN11GLC_Factory18createCuttingPlaneERK12GLC_Vector3dS2_ddP12GLC_Material@Base 2.2.0
 _ZN11GLC_Factory18worldReaderPluginsEv@Base 2.2.0
 _ZN11GLC_Factory23m_SupportedExtensionSetE@Base 2.2.0
 _ZN11GLC_Factory23m_WorldReaderPluginListE@Base 2.2.0
 _ZN11GLC_Factory28createDefaultMoverControllerERK6QColorP12GLC_Viewport@Base 2.2.0
 _ZN11GLC_Factory8instanceEv@Base 2.2.0
 _ZN11GLC_FactoryC1Ev@Base 2.2.0
 _ZN11GLC_FactoryC2Ev@Base 2.2.0
 _ZN11GLC_FactoryD0Ev@Base 2.2.0
 _ZN11GLC_FactoryD1Ev@Base 2.2.0
 _ZN11GLC_FactoryD2Ev@Base 2.2.0
 _ZN11GLC_Frustum6updateERK13GLC_Matrix4x4@Base 2.2.0
 _ZN11GLC_FrustumC1ERKS_@Base 2.2.0
 _ZN11GLC_FrustumC1Ev@Base 2.2.0
 _ZN11GLC_FrustumC2ERKS_@Base 2.2.0
 _ZN11GLC_FrustumC2Ev@Base 2.2.0
 _ZN11GLC_FrustumD1Ev@Base 2.2.0
 _ZN11GLC_FrustumD2Ev@Base 2.2.0
 _ZN11GLC_Texture12loadFromFileERK7QString@Base 2.2.0
 _ZN11GLC_Texture13glLoadTextureEP10QGLContext@Base 2.2.0
 _ZN11GLC_Texture14glcBindTextureEv@Base 2.2.0
 _ZN11GLC_Texture16m_MaxTextureSizeE@Base 2.2.0
 _ZN11GLC_Texture16m_MinTextureSizeE@Base 2.2.0
 _ZN11GLC_Texture16m_TextureIdUsageE@Base 2.2.0
 _ZN11GLC_Texture17setMaxTextureSizeERK5QSize@Base 2.2.0
 _ZN11GLC_Texture22addThisOpenGLTextureIdEv@Base 2.2.0
 _ZN11GLC_Texture25removeThisOpenGLTextureIdEv@Base 2.2.0
 _ZN11GLC_TextureC1ERK5QFile@Base 2.2.0
 _ZN11GLC_TextureC1ERK6QImageRK7QString@Base 2.2.0
 _ZN11GLC_TextureC1ERK7QString@Base 2.2.0
 _ZN11GLC_TextureC1ERKS_@Base 2.2.0
 _ZN11GLC_TextureC1Ev@Base 2.2.0
 _ZN11GLC_TextureC2ERK5QFile@Base 2.2.0
 _ZN11GLC_TextureC2ERK6QImageRK7QString@Base 2.2.0
 _ZN11GLC_TextureC2ERK7QString@Base 2.2.0
 _ZN11GLC_TextureC2ERKS_@Base 2.2.0
 _ZN11GLC_TextureC2Ev@Base 2.2.0
 _ZN11GLC_TextureD0Ev@Base 2.2.0
 _ZN11GLC_TextureD1Ev@Base 2.2.0
 _ZN11GLC_TextureD2Ev@Base 2.2.0
 _ZN11GLC_TextureaSERKS_@Base 2.2.0
 _ZN11QStringListC1ERK7QString@Base 2.2.0
 _ZN11QStringListD1Ev@Base 2.2.0
 _ZN11QStringListaSERKS_@Base 2.2.0
 _ZN12GLC_3DWidget10setVisibleEb@Base 2.2.0
 _ZN12GLC_3DWidget11qt_metacallEN11QMetaObject4CallEiPPv@Base 2.2.0
 _ZN12GLC_3DWidget11qt_metacastEPKc@Base 2.2.0
 _ZN12GLC_3DWidget12mousePressedERK12GLC_Vector3dN2Qt11MouseButtonEj@Base 2.2.0
 _ZN12GLC_3DWidget13mouseReleasedEN2Qt11MouseButtonE@Base 2.2.0
 _ZN12GLC_3DWidget15updateWidgetRepEv@Base 2.2.0
 _ZN12GLC_3DWidget16setWidgetManagerEP25GLC_3DWidgetManagerHandle@Base 2.2.0
 _ZN12GLC_3DWidget16staticMetaObjectE@Base 2.2.0
 _ZN12GLC_3DWidget17add3DViewInstanceERK18GLC_3DViewInstance@Base 2.2.0
 _ZN12GLC_3DWidget20remove3DViewInstanceEv@Base 2.2.0
 _ZN12GLC_3DWidget27set3DViewInstanceVisibilityEib@Base 2.2.0
 _ZN12GLC_3DWidget6selectERK12GLC_Vector3dj@Base 2.2.0
 _ZN12GLC_3DWidget8unselectERK12GLC_Vector3dj@Base 2.2.0
 _ZN12GLC_3DWidget9asChangedEv@Base 2.2.0
 _ZN12GLC_3DWidget9mouseMoveERK12GLC_Vector3d6QFlagsIN2Qt11MouseButtonEEj@Base 2.2.0
 _ZN12GLC_3DWidget9mouseOverERK12GLC_Vector3dj@Base 2.2.0
 _ZN12GLC_3DWidgetC1EP25GLC_3DWidgetManagerHandle@Base 2.2.0
 _ZN12GLC_3DWidgetC1ERKS_@Base 2.2.0
 _ZN12GLC_3DWidgetC2EP25GLC_3DWidgetManagerHandle@Base 2.2.0
 _ZN12GLC_3DWidgetC2ERKS_@Base 2.2.0
 _ZN12GLC_3DWidgetD0Ev@Base 2.2.0
 _ZN12GLC_3DWidgetD1Ev@Base 2.2.0
 _ZN12GLC_3DWidgetD2Ev@Base 2.2.0
 _ZN12GLC_3DWidgetaSERKS_@Base 2.2.0
 _ZN12GLC_Cylinder11boundingBoxEv@Base 2.2.0
 _ZN12GLC_Cylinder12setEndedCapsEb@Base 2.2.0
 _ZN12GLC_Cylinder13setDiscretionEi@Base 2.2.0
 _ZN12GLC_Cylinder17createMeshAndWireEv@Base 2.2.0
 _ZN12GLC_Cylinder6glDrawERK20GLC_RenderProperties@Base 2.2.0
 _ZN12GLC_Cylinder8chunckIDEv@Base 2.2.0
 _ZN12GLC_Cylinder9m_ChunkIdE@Base 2.2.0
 _ZN12GLC_Cylinder9setLengthEd@Base 2.2.0
 _ZN12GLC_Cylinder9setRadiusEd@Base 2.2.0
 _ZN12GLC_CylinderC1ERKS_@Base 2.2.0
 _ZN12GLC_CylinderC1Edd@Base 2.2.0
 _ZN12GLC_CylinderC2ERKS_@Base 2.2.0
 _ZN12GLC_CylinderC2Edd@Base 2.2.0
 _ZN12GLC_CylinderD0Ev@Base 2.2.0
 _ZN12GLC_CylinderD1Ev@Base 2.2.0
 _ZN12GLC_CylinderD2Ev@Base 2.2.0
 _ZN12GLC_ErrorLog11m_pErrorLogE@Base 2.2.0
 _ZN12GLC_ErrorLog11writeHeaderEv@Base 2.2.0
 _ZN12GLC_ErrorLog5closeEv@Base 2.2.0
 _ZN12GLC_ErrorLog7isEmptyEv@Base 2.2.0
 _ZN12GLC_ErrorLog7m_MutexE@Base 2.2.0
 _ZN12GLC_ErrorLog8addErrorERK11QStringList@Base 2.2.0
 _ZN12GLC_ErrorLog8instanceEv@Base 2.2.0
 _ZN12GLC_ErrorLogC1ERK7QString@Base 2.2.0
 _ZN12GLC_ErrorLogC2ERK7QString@Base 2.2.0
 _ZN12GLC_ErrorLogD0Ev@Base 2.2.0
 _ZN12GLC_ErrorLogD1Ev@Base 2.2.0
 _ZN12GLC_ErrorLogD2Ev@Base 2.2.0
 _ZN12GLC_FlyMover10timerEventEP11QTimerEvent@Base 2.2.0
 _ZN12GLC_FlyMover12mapForFlyingEdd@Base 2.2.0
 _ZN12GLC_FlyMover16increaseVelocityEd@Base 2.2.0
 _ZN12GLC_FlyMover17setFlyingVelocityEd@Base 2.2.0
 _ZN12GLC_FlyMover3flyEv@Base 2.2.0
 _ZN12GLC_FlyMover4endsEv@Base 2.2.0
 _ZN12GLC_FlyMover4initERK13GLC_UserInput@Base 2.2.0
 _ZN12GLC_FlyMover4moveERK13GLC_UserInput@Base 2.2.0
 _ZN12GLC_FlyMoverC1EP12GLC_ViewportRK5QListIP12GLC_RepMoverE@Base 2.2.0
 _ZN12GLC_FlyMoverC1ERKS_@Base 2.2.0
 _ZN12GLC_FlyMoverC2EP12GLC_ViewportRK5QListIP12GLC_RepMoverE@Base 2.2.0
 _ZN12GLC_FlyMoverC2ERKS_@Base 2.2.0
 _ZN12GLC_FlyMoverD0Ev@Base 2.2.0
 _ZN12GLC_FlyMoverD1Ev@Base 2.2.0
 _ZN12GLC_FlyMoverD2Ev@Base 2.2.0
 _ZN12GLC_Geometry10glPropGeomERK20GLC_RenderProperties@Base 2.2.0
 _ZN12GLC_Geometry11addMaterialEP12GLC_Material@Base 2.2.0
 _ZN12GLC_Geometry12setWireColorERK6QColor@Base 2.2.0
 _ZN12GLC_Geometry13clearGeometryEv@Base 2.2.0
 _ZN12GLC_Geometry13glLoadTextureEv@Base 2.2.0
 _ZN12GLC_Geometry13setCurrentLodEi@Base 2.2.0
 _ZN12GLC_Geometry14removeMaterialEj@Base 2.2.0
 _ZN12GLC_Geometry14reverseNormalsEv@Base 2.2.0
 _ZN12GLC_Geometry19copyVboToClientSideEv@Base 2.2.0
 _ZN12GLC_Geometry20releaseVboClientSideEb@Base 2.2.0
 _ZN12GLC_Geometry21replaceMasterMaterialEP12GLC_Material@Base 2.2.0
 _ZN12GLC_Geometry31updateTransparentMaterialNumberEv@Base 2.2.0
 _ZN12GLC_Geometry5clearEv@Base 2.2.0
 _ZN12GLC_Geometry6renderERK20GLC_RenderProperties@Base 2.2.0
 _ZN12GLC_GeometryC1ERK7QStringb@Base 2.2.0
 _ZN12GLC_GeometryC1ERKS_@Base 2.2.0
 _ZN12GLC_GeometryC2ERK7QStringb@Base 2.2.0
 _ZN12GLC_GeometryC2ERKS_@Base 2.2.0
 _ZN12GLC_GeometryD0Ev@Base 2.2.0
 _ZN12GLC_GeometryD1Ev@Base 2.2.0
 _ZN12GLC_GeometryD2Ev@Base 2.2.0
 _ZN12GLC_GeometryaSERKS_@Base 2.2.0
 _ZN12GLC_Material10setOpacityEd@Base 2.2.0
 _ZN12GLC_Material10setTextureEP11GLC_Texture@Base 2.2.0
 _ZN12GLC_Material11addGLC_GeomEP12GLC_Geometry@Base 2.2.0
 _ZN12GLC_Material11delGLC_GeomEj@Base 2.2.0
 _ZN12GLC_Material11setMaterialEPKS_@Base 2.2.0
 _ZN12GLC_Material13glLoadTextureEP10QGLContext@Base 2.2.0
 _ZN12GLC_Material13removeTextureEv@Base 2.2.0
 _ZN12GLC_Material14initOtherColorEv@Base 2.2.0
 _ZN12GLC_Material15setAmbientColorERK6QColor@Base 2.2.0
 _ZN12GLC_Material15setDiffuseColorERK6QColor@Base 2.2.0
 _ZN12GLC_Material16initDiffuseColorEv@Base 2.2.0
 _ZN12GLC_Material16setEmissiveColorERK6QColor@Base 2.2.0
 _ZN12GLC_Material16setSpecularColorERK6QColor@Base 2.2.0
 _ZN12GLC_Material8addUsageEj@Base 2.2.0
 _ZN12GLC_Material8chunckIDEv@Base 2.2.0
 _ZN12GLC_Material8delUsageEj@Base 2.2.0
 _ZN12GLC_Material9glExecuteEf@Base 2.2.0
 _ZN12GLC_Material9glExecuteEv@Base 2.2.0
 _ZN12GLC_Material9m_ChunkIdE@Base 2.2.0
 _ZN12GLC_MaterialC1EP11GLC_TextureRK7QString@Base 2.2.0
 _ZN12GLC_MaterialC1ERK6QColor@Base 2.2.0
 _ZN12GLC_MaterialC1ERK7QStringPKf@Base 2.2.0
 _ZN12GLC_MaterialC1ERKS_@Base 2.2.0
 _ZN12GLC_MaterialC1Ev@Base 2.2.0
 _ZN12GLC_MaterialC2EP11GLC_TextureRK7QString@Base 2.2.0
 _ZN12GLC_MaterialC2ERK6QColor@Base 2.2.0
 _ZN12GLC_MaterialC2ERK7QStringPKf@Base 2.2.0
 _ZN12GLC_MaterialC2ERKS_@Base 2.2.0
 _ZN12GLC_MaterialC2Ev@Base 2.2.0
 _ZN12GLC_MaterialD0Ev@Base 2.2.0
 _ZN12GLC_MaterialD1Ev@Base 2.2.0
 _ZN12GLC_MaterialD2Ev@Base 2.2.0
 _ZN12GLC_MeshData10createVBOsEv@Base 2.2.0
 _ZN12GLC_MeshData19copyVboToClientSideEv@Base 2.2.0
 _ZN12GLC_MeshData20releaseVboClientSideEb@Base 2.2.0
 _ZN12GLC_MeshData5clearEv@Base 2.2.0
 _ZN12GLC_MeshData7fillVboENS_7VboTypeE@Base 2.2.0
 _ZN12GLC_MeshData8chunckIDEv@Base 2.2.0
 _ZN12GLC_MeshData9finishLodEv@Base 2.2.0
 _ZN12GLC_MeshData9finishVboEv@Base 2.2.0
 _ZN12GLC_MeshData9m_ChunkIdE@Base 2.2.0
 _ZN12GLC_MeshDataC1ERKS_@Base 2.2.0
 _ZN12GLC_MeshDataC1Ev@Base 2.2.0
 _ZN12GLC_MeshDataC2ERKS_@Base 2.2.0
 _ZN12GLC_MeshDataC2Ev@Base 2.2.0
 _ZN12GLC_MeshDataD0Ev@Base 2.2.0
 _ZN12GLC_MeshDataD1Ev@Base 2.2.0
 _ZN12GLC_MeshDataD2Ev@Base 2.2.0
 _ZN12GLC_MeshDataaSERKS_@Base 2.2.0
 _ZN12GLC_PanMover4initERK13GLC_UserInput@Base 2.2.0
 _ZN12GLC_PanMover4moveERK13GLC_UserInput@Base 2.2.0
 _ZN12GLC_PanMoverC1EP12GLC_ViewportRK5QListIP12GLC_RepMoverE@Base 2.2.0
 _ZN12GLC_PanMoverC1ERKS_@Base 2.2.0
 _ZN12GLC_PanMoverC2EP12GLC_ViewportRK5QListIP12GLC_RepMoverE@Base 2.2.0
 _ZN12GLC_PanMoverC2ERKS_@Base 2.2.0
 _ZN12GLC_PanMoverD0Ev@Base 2.2.0
 _ZN12GLC_PanMoverD1Ev@Base 2.2.0
 _ZN12GLC_PanMoverD2Ev@Base 2.2.0
 _ZN12GLC_RepMover12RepMoverInfoD1Ev@Base 2.2.0
 _ZN12GLC_RepMover12setMainColorERK6QColor@Base 2.2.0
 _ZN12GLC_RepMover12setThicknessEd@Base 2.2.0
 _ZN12GLC_RepMover15setRepMoverInfoEPNS_12RepMoverInfoE@Base 2.2.0
 _ZN12GLC_RepMover4initEv@Base 2.2.0
 _ZN12GLC_RepMover6renderEv@Base 2.2.0
 _ZN12GLC_RepMover6updateEv@Base 2.2.0
 _ZN12GLC_RepMoverC1EP12GLC_Viewport@Base 2.2.0
 _ZN12GLC_RepMoverC1ERKS_@Base 2.2.0
 _ZN12GLC_RepMoverC2EP12GLC_Viewport@Base 2.2.0
 _ZN12GLC_RepMoverC2ERKS_@Base 2.2.0
 _ZN12GLC_RepMoverD0Ev@Base 2.2.0
 _ZN12GLC_RepMoverD1Ev@Base 2.2.0
 _ZN12GLC_RepMoverD2Ev@Base 2.2.0
 _ZN12GLC_TraceLog10m_IsEnableE@Base 2.2.0
 _ZN12GLC_TraceLog10setEnabledEb@Base 2.2.0
 _ZN12GLC_TraceLog11m_pTraceLogE@Base 2.2.0
 _ZN12GLC_TraceLog11writeHeaderEv@Base 2.2.0
 _ZN12GLC_TraceLog5closeEv@Base 2.2.0
 _ZN12GLC_TraceLog7isEmptyEv@Base 2.2.0
 _ZN12GLC_TraceLog7m_MutexE@Base 2.2.0
 _ZN12GLC_TraceLog8addTraceERK11QStringList@Base 2.2.0
 _ZN12GLC_TraceLog8instanceE7QString@Base 2.2.0
 _ZN12GLC_TraceLog8isEnableEv@Base 2.2.0
 _ZN12GLC_TraceLogC1ERK7QString@Base 2.2.0
 _ZN12GLC_TraceLogC2ERK7QString@Base 2.2.0
 _ZN12GLC_TraceLogD0Ev@Base 2.2.0
 _ZN12GLC_TraceLogD1Ev@Base 2.2.0
 _ZN12GLC_TraceLogD2Ev@Base 2.2.0
 _ZN12GLC_TsrMover4initERK13GLC_UserInput@Base 2.2.0
 _ZN12GLC_TsrMover4moveERK13GLC_UserInput@Base 2.2.0
 _ZN12GLC_TsrMoverC1EP12GLC_ViewportRK5QListIP12GLC_RepMoverE@Base 2.2.0
 _ZN12GLC_TsrMoverC1ERKS_@Base 2.2.0
 _ZN12GLC_TsrMoverC2EP12GLC_ViewportRK5QListIP12GLC_RepMoverE@Base 2.2.0
 _ZN12GLC_TsrMoverC2ERKS_@Base 2.2.0
 _ZN12GLC_TsrMoverD0Ev@Base 2.2.0
 _ZN12GLC_TsrMoverD1Ev@Base 2.2.0
 _ZN12GLC_TsrMoverD2Ev@Base 2.2.0
 _ZN12GLC_Vector4d10normalizeWEv@Base 2.2.0
 _ZN12GLC_Vector4d4setWERKd@Base 2.2.0
 _ZN12GLC_Vector4d7setVectERKdS1_S1_S1_@Base 2.2.0
 _ZN12GLC_Vector4d9setNormalERKd@Base 2.2.0
 _ZN12GLC_Viewport10selectBodyEP18GLC_3DViewInstanceii@Base 2.2.0
 _ZN12GLC_Viewport10setDistMaxEd@Base 2.2.0
 _ZN12GLC_Viewport10setDistMinEd@Base 2.2.0
 _ZN12GLC_Viewport10setToOrthoEb@Base 2.2.0
 _ZN12GLC_Viewport12addClipPlaneEjP9GLC_Plane@Base 2.2.0
 _ZN12GLC_Viewport12glExecuteCamEv@Base 2.2.0
 _ZN12GLC_Viewport12setWinGLSizeEii@Base 2.2.0
 _ZN12GLC_Viewport12useClipPlaneEb@Base 2.2.0
 _ZN12GLC_Viewport13updateFrustumEP13GLC_Matrix4x4@Base 2.2.0
 _ZN12GLC_Viewport14render3DWidgetEv@Base 2.2.0
 _ZN12GLC_Viewport15removeClipPlaneEj@Base 2.2.0
 _ZN12GLC_Viewport15renderAndSelectEii@Base 2.2.0
 _ZN12GLC_Viewport15selectPrimitiveEP18GLC_3DViewInstanceii@Base 2.2.0
 _ZN12GLC_Viewport16forceAspectRatioEd@Base 2.2.0
 _ZN12GLC_Viewport16renderImagePlaneEv@Base 2.2.0
 _ZN12GLC_Viewport16setDistMinAndMaxERK15GLC_BoundingBox@Base 2.2.0
 _ZN12GLC_Viewport17mapToOpenGLScreenEii@Base 2.2.0
 _ZN12GLC_Viewport17updateAspectRatioEv@Base 2.2.0
 _ZN12GLC_Viewport18removeAllClipPlaneEv@Base 2.2.0
 _ZN12GLC_Viewport18selectInsideSquareEiiii@Base 2.2.0
 _ZN12GLC_Viewport18setBackgroundColorE6QColor@Base 2.2.0
 _ZN12GLC_Viewport19loadBackGroundImageERK6QImage@Base 2.2.0
 _ZN12GLC_Viewport19loadBackGroundImageERK7QString@Base 2.2.0
 _ZN12GLC_Viewport19updateProjectionMatEv@Base 2.2.0
 _ZN12GLC_Viewport20listOfIdInsideSquareEiiii@Base 2.2.0
 _ZN12GLC_Viewport21deleteBackGroundImageEv@Base 2.2.0
 _ZN12GLC_Viewport22normalyseMousePositionEii@Base 2.2.0
 _ZN12GLC_Viewport22selectOnPreviousRenderEii@Base 2.2.0
 _ZN12GLC_Viewport22updateMinimumRatioSizeEv@Base 2.2.0
 _ZN12GLC_Viewport24meaningfulIdInsideSquareEiiii@Base 2.2.0
 _ZN12GLC_Viewport26mapNormalyzeToOpenGLScreenEdd@Base 2.2.0
 _ZN12GLC_Viewport6initGlEv@Base 2.2.0
 _ZN12GLC_Viewport7reframeERK15GLC_BoundingBox@Base 2.2.0
 _ZN12GLC_ViewportC1EP9QGLWidget@Base 2.2.0
 _ZN12GLC_ViewportC2EP9QGLWidget@Base 2.2.0
 _ZN12GLC_ViewportD0Ev@Base 2.2.0
 _ZN12GLC_ViewportD1Ev@Base 2.2.0
 _ZN12GLC_ViewportD2Ev@Base 2.2.0
 _ZN12GLC_WireData10createVBOsEv@Base 2.2.0
 _ZN12GLC_WireData11boundingBoxEv@Base 2.2.0
 _ZN12GLC_WireData15addVerticeGroupERK7QVectorIfE@Base 2.2.0
 _ZN12GLC_WireData19copyVboToClientSideEv@Base 2.2.0
 _ZN12GLC_WireData20releaseVboClientSideEb@Base 2.2.0
 _ZN12GLC_WireData5clearEv@Base 2.2.0
 _ZN12GLC_WireData6glDrawERK20GLC_RenderPropertiesj@Base 2.2.0
 _ZN12GLC_WireData6useVBOEb@Base 2.2.0
 _ZN12GLC_WireData8chunckIDEv@Base 2.2.0
 _ZN12GLC_WireData8fillVBOsEv@Base 2.2.0
 _ZN12GLC_WireData9finishVboEv@Base 2.2.0
 _ZN12GLC_WireData9m_ChunkIdE@Base 2.2.0
 _ZN12GLC_WireDataC1ERKS_@Base 2.2.0
 _ZN12GLC_WireDataC1Ev@Base 2.2.0
 _ZN12GLC_WireDataC2ERKS_@Base 2.2.0
 _ZN12GLC_WireDataC2Ev@Base 2.2.0
 _ZN12GLC_WireDataD0Ev@Base 2.2.0
 _ZN12GLC_WireDataD1Ev@Base 2.2.0
 _ZN12GLC_WireDataD2Ev@Base 2.2.0
 _ZN12GLC_WireDataaSERKS_@Base 2.2.0
 _ZN12QMutexLockerD1Ev@Base 2.2.0
 _ZN13GLC_ExceptionC1ERK7QString@Base 2.2.0
 _ZN13GLC_ExceptionC2ERK7QString@Base 2.2.0
 _ZN13GLC_ExceptionD0Ev@Base 2.2.0
 _ZN13GLC_ExceptionD1Ev@Base 2.2.0
 _ZN13GLC_ExceptionD2Ev@Base 2.2.0
 _ZN13GLC_Matrix4x49fromEulerEddd@Base 2.2.0
 _ZN13GLC_Matrix4x49setColumnEiRK12GLC_Vector3d@Base 2.2.0
 _ZN13GLC_Matrix4x4C1EPKd@Base 2.2.0
 _ZN13GLC_Matrix4x4C1ERKS_@Base 2.2.0
 _ZN13GLC_Matrix4x4aSERKS_@Base 2.2.0
 _ZN13GLC_Polylines11boundingBoxEv@Base 2.2.0
 _ZN13GLC_Polylines5clearEv@Base 2.2.0
 _ZN13GLC_Polylines6glDrawERK20GLC_RenderProperties@Base 2.2.0
 _ZN13GLC_PolylinesC1ERKS_@Base 2.2.0
 _ZN13GLC_PolylinesC1Ev@Base 2.2.0
 _ZN13GLC_PolylinesC2ERKS_@Base 2.2.0
 _ZN13GLC_PolylinesC2Ev@Base 2.2.0
 _ZN13GLC_PolylinesD0Ev@Base 2.2.0
 _ZN13GLC_PolylinesD1Ev@Base 2.2.0
 _ZN13GLC_PolylinesD2Ev@Base 2.2.0
 _ZN13GLC_PolylinesaSERKS_@Base 2.2.0
 _ZN13GLC_Rectangle10setLength1Ed@Base 2.2.0
 _ZN13GLC_Rectangle10setLength2Ed@Base 2.2.0
 _ZN13GLC_Rectangle11boundingBoxEv@Base 2.2.0
 _ZN13GLC_Rectangle12setRectangleEdd@Base 2.2.0
 _ZN13GLC_Rectangle17createMeshAndWireEv@Base 2.2.0
 _ZN13GLC_Rectangle6glDrawERK20GLC_RenderProperties@Base 2.2.0
 _ZN13GLC_RectangleC1ERKS_@Base 2.2.0
 _ZN13GLC_RectangleC1Edd@Base 2.2.0
 _ZN13GLC_RectangleC1Ev@Base 2.2.0
 _ZN13GLC_RectangleC2ERKS_@Base 2.2.0
 _ZN13GLC_RectangleC2Edd@Base 2.2.0
 _ZN13GLC_RectangleC2Ev@Base 2.2.0
 _ZN13GLC_RectangleD0Ev@Base 2.2.0
 _ZN13GLC_RectangleD1Ev@Base 2.2.0
 _ZN13GLC_RectangleD2Ev@Base 2.2.0
 _ZN13GLC_UserInput11setPositionEii@Base 2.2.0
 _ZN13GLC_UserInput17setTransformationERK12GLC_Vector2ddd@Base 2.2.0
 _ZN13GLC_UserInput31setNormalyzeTouchCenterPositionEdd@Base 2.2.0
 _ZN13GLC_UserInputC1Eii@Base 2.2.0
 _ZN13GLC_UserInputC2Eii@Base 2.2.0
 _ZN13GLC_UserInputD0Ev@Base 2.2.0
 _ZN13GLC_UserInputD1Ev@Base 2.2.0
 _ZN13GLC_UserInputD2Ev@Base 2.2.0
 _ZN13GLC_ZoomMover4initERK13GLC_UserInput@Base 2.2.0
 _ZN13GLC_ZoomMover4moveERK13GLC_UserInput@Base 2.2.0
 _ZN13GLC_ZoomMoverC1EP12GLC_ViewportRK5QListIP12GLC_RepMoverE@Base 2.2.0
 _ZN13GLC_ZoomMoverC1ERKS_@Base 2.2.0
 _ZN13GLC_ZoomMoverC2EP12GLC_ViewportRK5QListIP12GLC_RepMoverE@Base 2.2.0
 _ZN13GLC_ZoomMoverC2ERKS_@Base 2.2.0
 _ZN13GLC_ZoomMoverD0Ev@Base 2.2.0
 _ZN13GLC_ZoomMoverD1Ev@Base 2.2.0
 _ZN13GLC_ZoomMoverD2Ev@Base 2.2.0
 _ZN13QuaZipNewInfo15setFileDateTimeERK7QString@Base 2.2.0
 _ZN13QuaZipNewInfoC1ERK7QString@Base 2.2.0
 _ZN13QuaZipNewInfoC1ERK7QStringS2_@Base 2.2.0
 _ZN13QuaZipNewInfoC2ERK7QString@Base 2.2.0
 _ZN13QuaZipNewInfoC2ERK7QStringS2_@Base 2.2.0
 _ZN13QuaZipNewInfoD1Ev@Base 2.2.0
 _ZN14GLC_3dsToWorld11create3DRepEP10Lib3dsMesh@Base 2.2.0
 _ZN14GLC_3dsToWorld11qt_metacallEN11QMetaObject4CallEiPPv@Base 2.2.0
 _ZN14GLC_3dsToWorld11qt_metacastEPKc@Base 2.2.0
 _ZN14GLC_3dsToWorld12createMeshesEP19GLC_StructOccurenceP10Lib3dsNode@Base 2.2.0
 _ZN14GLC_3dsToWorld12loadMaterialEP14Lib3dsMaterial@Base 2.2.0
 _ZN14GLC_3dsToWorld14currentQuantumEi@Base 2.2.0
 _ZN14GLC_3dsToWorld16staticMetaObjectE@Base 2.2.0
 _ZN14GLC_3dsToWorld18CreateWorldFrom3dsER5QFile@Base 2.2.0
 _ZN14GLC_3dsToWorld5clearEv@Base 2.2.0
 _ZN14GLC_3dsToWorldC1Ev@Base 2.2.0
 _ZN14GLC_3dsToWorldC2Ev@Base 2.2.0
 _ZN14GLC_3dsToWorldD0Ev@Base 2.2.0
 _ZN14GLC_3dsToWorldD1Ev@Base 2.2.0
 _ZN14GLC_3dsToWorldD2Ev@Base 2.2.0
 _ZN14GLC_AttributesC1ERKS_@Base 2.2.0
 _ZN14GLC_AttributesC1Ev@Base 2.2.0
 _ZN14GLC_AttributesC2ERKS_@Base 2.2.0
 _ZN14GLC_AttributesC2Ev@Base 2.2.0
 _ZN14GLC_AttributesD0Ev@Base 2.2.0
 _ZN14GLC_AttributesD1Ev@Base 2.2.0
 _ZN14GLC_AttributesD2Ev@Base 2.2.0
 _ZN14GLC_AttributesaSERKS_@Base 2.2.0
 _ZN14GLC_FileLoader11qt_metacallEN11QMetaObject4CallEiPPv@Base 2.2.0
 _ZN14GLC_FileLoader11qt_metacastEPKc@Base 2.2.0
 _ZN14GLC_FileLoader14currentQuantumEi@Base 2.2.0
 _ZN14GLC_FileLoader16staticMetaObjectE@Base 2.2.0
 _ZN14GLC_FileLoader19createWorldFromFileER5QFileP11QStringList@Base 2.2.0
 _ZN14GLC_FileLoaderC1Ev@Base 2.2.0
 _ZN14GLC_FileLoaderC2Ev@Base 2.2.0
 _ZN14GLC_FileLoaderD0Ev@Base 2.2.0
 _ZN14GLC_FileLoaderD1Ev@Base 2.2.0
 _ZN14GLC_FileLoaderD2Ev@Base 2.2.0
 _ZN14GLC_ImagePlane6renderEv@Base 2.2.0
 _ZN14GLC_ImagePlaneC1ERK6QImage@Base 2.2.0
 _ZN14GLC_ImagePlaneC1ERK7QString@Base 2.2.0
 _ZN14GLC_ImagePlaneC2ERK6QImage@Base 2.2.0
 _ZN14GLC_ImagePlaneC2ERK7QString@Base 2.2.0
 _ZN14GLC_ImagePlaneD1Ev@Base 2.2.0
 _ZN14GLC_ImagePlaneD2Ev@Base 2.2.0
 _ZN14GLC_ObjToWorld10mergeLinesEP7QStringP11QTextStream@Base 2.2.0
 _ZN14GLC_ObjToWorld10setObjTypeER7QString@Base 2.2.0
 _ZN14GLC_ObjToWorld11changeGroupE7QString@Base 2.2.0
 _ZN14GLC_ObjToWorld11qt_metacallEN11QMetaObject4CallEiPPv@Base 2.2.0
 _ZN14GLC_ObjToWorld11qt_metacastEPKc@Base 2.2.0
 _ZN14GLC_ObjToWorld13computeNormalEjjj@Base 2.2.0
 _ZN14GLC_ObjToWorld13extract2dVectER7QString@Base 2.2.0
 _ZN14GLC_ObjToWorld13extract3dVectER7QString@Base 2.2.0
 _ZN14GLC_ObjToWorld14currentQuantumEi@Base 2.2.0
 _ZN14GLC_ObjToWorld16extractFaceIndexER7QString@Base 2.2.0
 _ZN14GLC_ObjToWorld16staticMetaObjectE@Base 2.2.0
 _ZN14GLC_ObjToWorld17getMtlLibFileNameE7QString@Base 2.2.0
 _ZN14GLC_ObjToWorld18CreateWorldFromObjER5QFile@Base 2.2.0
 _ZN14GLC_ObjToWorld18extractVertexIndexE7QStringRiS1_S1_@Base 2.2.0
 _ZN14GLC_ObjToWorld18setCurrentMaterialER7QString@Base 2.2.0
 _ZN14GLC_ObjToWorld24addCurrentObjMeshToWorldEv@Base 2.2.0
 _ZN14GLC_ObjToWorld5clearEv@Base 2.2.0
 _ZN14GLC_ObjToWorld9scanLigneER7QString@Base 2.2.0
 _ZN14GLC_ObjToWorldC1Ev@Base 2.2.0
 _ZN14GLC_ObjToWorldC2Ev@Base 2.2.0
 _ZN14GLC_ObjToWorldD0Ev@Base 2.2.0
 _ZN14GLC_ObjToWorldD1Ev@Base 2.2.0
 _ZN14GLC_ObjToWorldD2Ev@Base 2.2.0
 _ZN14GLC_OctreeNode11addChildrenEv@Base 2.2.0
 _ZN14GLC_OctreeNode11addInstanceEP18GLC_3DViewInstancei@Base 2.2.0
 _ZN14GLC_OctreeNode14unableViewFlagEP4QSetIP18GLC_3DViewInstanceE@Base 2.2.0
 _ZN14GLC_OctreeNode15disableViewFlagEP4QSetIP18GLC_3DViewInstanceE@Base 2.2.0
 _ZN14GLC_OctreeNode19m_useBoundingSphereE@Base 2.2.0
 _ZN14GLC_OctreeNode19removeEmptyChildrenEv@Base 2.2.0
 _ZN14GLC_OctreeNode23updateViewableInstancesERK11GLC_FrustumP4QSetIP18GLC_3DViewInstanceE@Base 2.2.0
 _ZN14GLC_OctreeNode25setOfIntersectedInstancesERK15GLC_BoundingBox@Base 2.2.0
 _ZN14GLC_OctreeNode29useBoundingSphereIntersectionEb@Base 2.2.0
 _ZN14GLC_OctreeNode34intersectionWithBoundingSphereUsedEv@Base 2.2.0
 _ZN14GLC_OctreeNodeC1ERK15GLC_BoundingBoxPS_@Base 2.2.0
 _ZN14GLC_OctreeNodeC1ERKS_PS_@Base 2.2.0
 _ZN14GLC_OctreeNodeC2ERK15GLC_BoundingBoxPS_@Base 2.2.0
 _ZN14GLC_OctreeNodeC2ERKS_PS_@Base 2.2.0
 _ZN14GLC_OctreeNodeD0Ev@Base 2.2.0
 _ZN14GLC_OctreeNodeD1Ev@Base 2.2.0
 _ZN14GLC_OctreeNodeD2Ev@Base 2.2.0
 _ZN14GLC_OffToWorld11qt_metacallEN11QMetaObject4CallEiPPv@Base 2.2.0
 _ZN14GLC_OffToWorld11qt_metacastEPKc@Base 2.2.0
 _ZN14GLC_OffToWorld13computeNormalEv@Base 2.2.0
 _ZN14GLC_OffToWorld13extractVertexER7QString@Base 2.2.0
 _ZN14GLC_OffToWorld14currentQuantumEi@Base 2.2.0
 _ZN14GLC_OffToWorld16extractFaceIndexER7QString@Base 2.2.0
 _ZN14GLC_OffToWorld16staticMetaObjectE@Base 2.2.0
 _ZN14GLC_OffToWorld18CreateWorldFromOffER5QFile@Base 2.2.0
 _ZN14GLC_OffToWorld28extractNbrVertexsAndNbrFacesER7QString@Base 2.2.0
 _ZN14GLC_OffToWorld5clearEv@Base 2.2.0
 _ZN14GLC_OffToWorldC1Ev@Base 2.2.0
 _ZN14GLC_OffToWorldC2Ev@Base 2.2.0
 _ZN14GLC_OffToWorldD0Ev@Base 2.2.0
 _ZN14GLC_OffToWorldD1Ev@Base 2.2.0
 _ZN14GLC_OffToWorldD2Ev@Base 2.2.0
 _ZN14GLC_PointCloud11boundingBoxEv@Base 2.2.0
 _ZN14GLC_PointCloud5clearEv@Base 2.2.0
 _ZN14GLC_PointCloud6glDrawERK20GLC_RenderProperties@Base 2.2.0
 _ZN14GLC_PointCloud8addPointERK5QListI12GLC_Vector3dE@Base 2.2.0
 _ZN14GLC_PointCloud8addPointERK5QListI13GLC_Vector3dfE@Base 2.2.0
 _ZN14GLC_PointCloudC1ERKS_@Base 2.2.0
 _ZN14GLC_PointCloudC1Ev@Base 2.2.0
 _ZN14GLC_PointCloudC2ERKS_@Base 2.2.0
 _ZN14GLC_PointCloudC2Ev@Base 2.2.0
 _ZN14GLC_PointCloudD0Ev@Base 2.2.0
 _ZN14GLC_PointCloudD1Ev@Base 2.2.0
 _ZN14GLC_PointCloudD2Ev@Base 2.2.0
 _ZN14GLC_PointCloudaSERKS_@Base 2.2.0
 _ZN14GLC_StlToWorld11qt_metacallEN11QMetaObject4CallEiPPv@Base 2.2.0
 _ZN14GLC_StlToWorld11qt_metacastEPKc@Base 2.2.0
 _ZN14GLC_StlToWorld13LoadBinariStlER5QFile@Base 2.2.0
 _ZN14GLC_StlToWorld13extract3dVectER7QString@Base 2.2.0
 _ZN14GLC_StlToWorld14currentQuantumEi@Base 2.2.0
 _ZN14GLC_StlToWorld16staticMetaObjectE@Base 2.2.0
 _ZN14GLC_StlToWorld18CreateWorldFromStlER5QFile@Base 2.2.0
 _ZN14GLC_StlToWorld5clearEv@Base 2.2.0
 _ZN14GLC_StlToWorld9scanFacetEv@Base 2.2.0
 _ZN14GLC_StlToWorldC1Ev@Base 2.2.0
 _ZN14GLC_StlToWorldC2Ev@Base 2.2.0
 _ZN14GLC_StlToWorldD0Ev@Base 2.2.0
 _ZN14GLC_StlToWorldD1Ev@Base 2.2.0
 _ZN14GLC_StlToWorldD2Ev@Base 2.2.0
 _ZN15GLC_BoundingBox7combineERK12GLC_Vector3d@Base 2.2.0
 _ZN15GLC_BoundingBox7combineERK13GLC_Vector3df@Base 2.2.0
 _ZN15GLC_BoundingBox7combineERKS_@Base 2.2.0
 _ZN15GLC_BoundingBox8chunckIDEv@Base 2.2.0
 _ZN15GLC_BoundingBox9m_ChunkIdE@Base 2.2.0
 _ZN15GLC_BoundingBox9transformERK13GLC_Matrix4x4@Base 2.2.0
 _ZN15GLC_BoundingBoxC1ERK12GLC_Vector3dS2_@Base 2.2.0
 _ZN15GLC_BoundingBoxC1ERKS_@Base 2.2.0
 _ZN15GLC_BoundingBoxC1Ev@Base 2.2.0
 _ZN15GLC_BoundingBoxC2ERK12GLC_Vector3dS2_@Base 2.2.0
 _ZN15GLC_BoundingBoxC2ERKS_@Base 2.2.0
 _ZN15GLC_BoundingBoxC2Ev@Base 2.2.0
 _ZN15GLC_OpenGLStateC1Ev@Base 2.2.0
 _ZN15GLC_OpenGLStateC2Ev@Base 2.2.0
 _ZN15GLC_OpenGLStateD0Ev@Base 2.2.0
 _ZN15GLC_OpenGLStateD1Ev@Base 2.2.0
 _ZN15GLC_OpenGLStateD2Ev@Base 2.2.0
 _ZN15GLC_PointSprite11boundingBoxEv@Base 2.2.0
 _ZN15GLC_PointSprite27setPointDistanceAttenuationE7QVectorIfE@Base 2.2.0
 _ZN15GLC_PointSprite6glDrawERK20GLC_RenderProperties@Base 2.2.0
 _ZN15GLC_PointSprite6renderERK20GLC_RenderProperties@Base 2.2.0
 _ZN15GLC_PointSprite7setSizeEf@Base 2.2.0
 _ZN15GLC_PointSprite9m_MaxSizeE@Base 2.2.0
 _ZN15GLC_PointSpriteC1EfP12GLC_Material@Base 2.2.0
 _ZN15GLC_PointSpriteC2EfP12GLC_Material@Base 2.2.0
 _ZN15GLC_PointSpriteD0Ev@Base 2.2.0
 _ZN15GLC_PointSpriteD1Ev@Base 2.2.0
 _ZN15GLC_PointSpriteD2Ev@Base 2.2.0
 _ZN15GLC_RepFlyMover12setMainColorERK6QColor@Base 2.2.0
 _ZN15GLC_RepFlyMover12setThicknessEd@Base 2.2.0
 _ZN15GLC_RepFlyMover20createRepresentationEv@Base 2.2.0
 _ZN15GLC_RepFlyMover6glDrawEv@Base 2.2.0
 _ZN15GLC_RepFlyMover6updateEv@Base 2.2.0
 _ZN15GLC_RepFlyMoverC1EP12GLC_Viewport@Base 2.2.0
 _ZN15GLC_RepFlyMoverC1ERKS_@Base 2.2.0
 _ZN15GLC_RepFlyMoverC2EP12GLC_Viewport@Base 2.2.0
 _ZN15GLC_RepFlyMoverC2ERKS_@Base 2.2.0
 _ZN15GLC_RepFlyMoverD0Ev@Base 2.2.0
 _ZN15GLC_RepFlyMoverD1Ev@Base 2.2.0
 _ZN15GLC_RepFlyMoverD2Ev@Base 2.2.0
 _ZN15GLC_WorldHandle11unselectAllEv@Base 2.2.0
 _ZN15GLC_WorldHandle12addOccurenceEP19GLC_StructOccurencebj@Base 2.2.0
 _ZN15GLC_WorldHandle15removeOccurenceEP19GLC_StructOccurence@Base 2.2.0
 _ZN15GLC_WorldHandle27selectAllWith3DViewInstanceEb@Base 2.2.0
 _ZN15GLC_WorldHandle30showHideSelected3DViewInstanceEv@Base 2.2.0
 _ZN15GLC_WorldHandle35setSelected3DViewInstanceVisibilityEb@Base 2.2.0
 _ZN15GLC_WorldHandle6selectEjb@Base 2.2.0
 _ZN15GLC_WorldHandle8unselectEjb@Base 2.2.0
 _ZN15GLC_WorldHandleC1Ev@Base 2.2.0
 _ZN15GLC_WorldHandleC2Ev@Base 2.2.0
 _ZN15GLC_WorldHandleD1Ev@Base 2.2.0
 _ZN15GLC_WorldHandleD2Ev@Base 2.2.0
 _ZN16GLC_3dxmlToWorld10loadMatrixERK7QString@Base 2.2.0
 _ZN16GLC_3dxmlToWorld10m_ZipMutexE@Base 2.2.0
 _ZN16GLC_3dxmlToWorld11MaterialRefD1Ev@Base 2.2.0
 _ZN16GLC_3dxmlToWorld11getMaterialEv@Base 2.2.0
 _ZN16GLC_3dxmlToWorld11goToElementEP16QXmlStreamReaderRK7QString@Base 2.2.0
 _ZN16GLC_3dxmlToWorld11loadTextureE7QString@Base 2.2.0
 _ZN16GLC_3dxmlToWorld11qt_metacallEN11QMetaObject4CallEiPPv@Base 2.2.0
 _ZN16GLC_3dxmlToWorld11qt_metacastEPKc@Base 2.2.0
 _ZN16GLC_3dxmlToWorld12loadManifestEv@Base 2.2.0
 _ZN16GLC_3dxmlToWorld12loadPolylineEP8GLC_Mesh@Base 2.2.0
 _ZN16GLC_3dxmlToWorld13readAttributeERK7QStringb@Base 2.2.0
 _ZN16GLC_3dxmlToWorld14currentQuantumEi@Base 2.2.0
 _ZN16GLC_3dxmlToWorld14loadInstance3DEv@Base 2.2.0
 _ZN16GLC_3dxmlToWorld15loadCatRepImageEv@Base 2.2.0
 _ZN16GLC_3dxmlToWorld15loadInstanceRepEv@Base 2.2.0
 _ZN16GLC_3dxmlToWorld15loadMaterialDefERKNS_11MaterialRefE@Base 2.2.0
 _ZN16GLC_3dxmlToWorld15loadReference3DEv@Base 2.2.0
 _ZN16GLC_3dxmlToWorld16checkForXmlErrorERK7QString@Base 2.2.0
 _ZN16GLC_3dxmlToWorld16loadReferenceRepEv@Base 2.2.0
 _ZN16GLC_3dxmlToWorld16staticMetaObjectE@Base 2.2.0
 _ZN16GLC_3dxmlToWorld17checkFileValidityEP9QIODevice@Base 2.2.0
 _ZN16GLC_3dxmlToWorld17clearMaterialHashEv@Base 2.2.0
 _ZN16GLC_3dxmlToWorld17loadCurrentExtRepEv@Base 2.2.0
 _ZN16GLC_3dxmlToWorld17loadExternalRef3DEv@Base 2.2.0
 _ZN16GLC_3dxmlToWorld18createReferenceRepE7QStringP9GLC_3DRep@Base 2.2.0
 _ZN16GLC_3dxmlToWorld18createUnfoldedTreeEv@Base 2.2.0
 _ZN16GLC_3dxmlToWorld18loadCatMaterialRefEv@Base 2.2.0
 _ZN16GLC_3dxmlToWorld20createWorldFrom3dxmlER5QFilebb@Base 2.2.0
 _ZN16GLC_3dxmlToWorld20loadProductStructureEv@Base 2.2.0
 _ZN16GLC_3dxmlToWorld21gotToPolygonalRepTypeEv@Base 2.2.0
 _ZN16GLC_3dxmlToWorld21loadSurfaceAttributesEv@Base 2.2.0
 _ZN16GLC_3dxmlToWorld21setStreamReaderToFileE7QStringb@Base 2.2.0
 _ZN16GLC_3dxmlToWorld22loadGraphicsPropertiesEv@Base 2.2.0
 _ZN16GLC_3dxmlToWorld23create3DrepFrom3dxmlRepERK7QString@Base 2.2.0
 _ZN16GLC_3dxmlToWorld23loadDefaultViewPropertyEv@Base 2.2.0
 _ZN16GLC_3dxmlToWorld24loadLocalRepresentationsEv@Base 2.2.0
 _ZN16GLC_3dxmlToWorld25loadExternRepresentationsEv@Base 2.2.0
 _ZN16GLC_3dxmlToWorld25setRepresentationFileNameEP9GLC_3DRep@Base 2.2.0
 _ZN16GLC_3dxmlToWorld5clearEv@Base 2.2.0
 _ZN16GLC_3dxmlToWorld7loadLODEP8GLC_Mesh@Base 2.2.0
 _ZN16GLC_3dxmlToWorld8loadFaceEP8GLC_Meshid@Base 2.2.0
 _ZN16GLC_3dxmlToWorld8readNextEv@Base 2.2.0
 _ZN16GLC_3dxmlToWorld9goToRepIdERK7QString@Base 2.2.0
 _ZN16GLC_3dxmlToWorldC1Ev@Base 2.2.0
 _ZN16GLC_3dxmlToWorldC2Ev@Base 2.2.0
 _ZN16GLC_3dxmlToWorldD0Ev@Base 2.2.0
 _ZN16GLC_3dxmlToWorldD1Ev@Base 2.2.0
 _ZN16GLC_3dxmlToWorldD2Ev@Base 2.2.0
 _ZN16GLC_BSRepToWorld20CreateWorldFromBSRepER5QFile@Base 2.2.0
 _ZN16GLC_BSRepToWorldC1Ev@Base 2.2.0
 _ZN16GLC_BSRepToWorldC2Ev@Base 2.2.0
 _ZN16GLC_BSRepToWorldD0Ev@Base 2.2.0
 _ZN16GLC_BSRepToWorldD1Ev@Base 2.2.0
 _ZN16GLC_BSRepToWorldD2Ev@Base 2.2.0
 _ZN16GLC_CacheManager10addToCacheERK7QStringRK9GLC_3DRep@Base 2.2.0
 _ZN16GLC_CacheManager12setCachePathERK7QString@Base 2.2.0
 _ZN16GLC_CacheManagerC1ERK7QString@Base 2.2.0
 _ZN16GLC_CacheManagerC1ERKS_@Base 2.2.0
 _ZN16GLC_CacheManagerC2ERK7QString@Base 2.2.0
 _ZN16GLC_CacheManagerC2ERKS_@Base 2.2.0
 _ZN16GLC_CacheManagerD0Ev@Base 2.2.0
 _ZN16GLC_CacheManagerD1Ev@Base 2.2.0
 _ZN16GLC_CacheManagerD2Ev@Base 2.2.0
 _ZN16GLC_CacheManageraSERKS_@Base 2.2.0
 _ZN16GLC_CuttingPlane12mousePressedERK12GLC_Vector3dN2Qt11MouseButtonEj@Base 2.2.0
 _ZN16GLC_CuttingPlane12updateLengthEdd@Base 2.2.0
 _ZN16GLC_CuttingPlane13mouseReleasedEN2Qt11MouseButtonE@Base 2.2.0
 _ZN16GLC_CuttingPlane14resetViewStateEv@Base 2.2.0
 _ZN16GLC_CuttingPlane15updateWidgetRepEv@Base 2.2.0
 _ZN16GLC_CuttingPlane17rotationNavigatorEi@Base 2.2.0
 _ZN16GLC_CuttingPlane18moveManipulatorRepERK12GLC_Vector3d@Base 2.2.0
 _ZN16GLC_CuttingPlane20create3DviewInstanceEv@Base 2.2.0
 _ZN16GLC_CuttingPlane6selectERK12GLC_Vector3dj@Base 2.2.0
 _ZN16GLC_CuttingPlane8unselectERK12GLC_Vector3dj@Base 2.2.0
 _ZN16GLC_CuttingPlane9mouseMoveERK12GLC_Vector3d6QFlagsIN2Qt11MouseButtonEEj@Base 2.2.0
 _ZN16GLC_CuttingPlaneC1ERK12GLC_Vector3dS2_ddP25GLC_3DWidgetManagerHandle@Base 2.2.0
 _ZN16GLC_CuttingPlaneC1ERKS_@Base 2.2.0
 _ZN16GLC_CuttingPlaneC2ERK12GLC_Vector3dS2_ddP25GLC_3DWidgetManagerHandle@Base 2.2.0
 _ZN16GLC_CuttingPlaneC2ERKS_@Base 2.2.0
 _ZN16GLC_CuttingPlaneD0Ev@Base 2.2.0
 _ZN16GLC_CuttingPlaneD1Ev@Base 2.2.0
 _ZN16GLC_CuttingPlaneD2Ev@Base 2.2.0
 _ZN16GLC_CuttingPlaneaSERKS_@Base 2.2.0
 _ZN16GLC_Interpolator11SetVecteursERK12GLC_Vector3dS2_@Base 2.2.0
 _ZN16GLC_Interpolator14SetInterpolMatEiRK12GLC_Vector3dS2_13INTERPOL_TYPE@Base 2.2.0
 _ZN16GLC_Interpolator15CalcInterpolMatEv@Base 2.2.0
 _ZN16GLC_Interpolator23CalcInterpolLineaireMatEv@Base 2.2.0
 _ZN16GLC_Interpolator24CalcInterpolAngulaireMatEv@Base 2.2.0
 _ZN16GLC_Interpolator7SetTypeE13INTERPOL_TYPE@Base 2.2.0
 _ZN16GLC_Interpolator9SetNbrPasEi@Base 2.2.0
 _ZN16GLC_InterpolatorC1Ev@Base 2.2.0
 _ZN16GLC_InterpolatorC2Ev@Base 2.2.0
 _ZN16GLC_ObjMtlLoader13loadMaterialsEv@Base 2.2.0
 _ZN16GLC_ObjMtlLoader14getTextureNameER11QTextStreamRK7QString@Base 2.2.0
 _ZN16GLC_ObjMtlLoader15extractOneValueER7QString@Base 2.2.0
 _ZN16GLC_ObjMtlLoader15extractRGBValueER7QString@Base 2.2.0
 _ZN16GLC_ObjMtlLoader19extractMaterialNameER7QString@Base 2.2.0
 _ZN16GLC_ObjMtlLoader19processMayaSpecificEv@Base 2.2.0
 _ZN16GLC_ObjMtlLoader22extractTextureFileNameER7QString@Base 2.2.0
 _ZN16GLC_ObjMtlLoader8materialERK7QString@Base 2.2.0
 _ZN16GLC_ObjMtlLoaderC1ERK7QString@Base 2.2.0
 _ZN16GLC_ObjMtlLoaderC2ERK7QString@Base 2.2.0
 _ZN16GLC_ObjMtlLoaderD0Ev@Base 2.2.0
 _ZN16GLC_ObjMtlLoaderD1Ev@Base 2.2.0
 _ZN16GLC_ObjMtlLoaderD2Ev@Base 2.2.0
 _ZN16GLC_SelectionSet17insertPrimitiveIdEP19GLC_StructOccurencej@Base 2.2.0
 _ZN16GLC_SelectionSet17insertPrimitiveIdEjj@Base 2.2.0
 _ZN16GLC_SelectionSet17removePrimitiveIdEP19GLC_StructOccurencej@Base 2.2.0
 _ZN16GLC_SelectionSet17removePrimitiveIdEjj@Base 2.2.0
 _ZN16GLC_SelectionSet23insertSetOfPrimitivesIdEP19GLC_StructOccurenceRK4QSetIjE@Base 2.2.0
 _ZN16GLC_SelectionSet23insertSetOfPrimitivesIdEjRK4QSetIjE@Base 2.2.0
 _ZN16GLC_SelectionSet5clearEv@Base 2.2.0
 _ZN16GLC_SelectionSet6insertEP19GLC_StructOccurence@Base 2.2.0
 _ZN16GLC_SelectionSet6insertEj@Base 2.2.0
 _ZN16GLC_SelectionSet6removeEP19GLC_StructOccurence@Base 2.2.0
 _ZN16GLC_SelectionSet6removeEj@Base 2.2.0
 _ZN16GLC_SelectionSetC1EP15GLC_WorldHandle@Base 2.2.0
 _ZN16GLC_SelectionSetC2EP15GLC_WorldHandle@Base 2.2.0
 _ZN16GLC_SelectionSetD0Ev@Base 2.2.0
 _ZN16GLC_SelectionSetD1Ev@Base 2.2.0
 _ZN16GLC_SelectionSetD2Ev@Base 2.2.0
 _ZN16GLC_WorldTo3dxml10write3DRepEPK9GLC_3DRepRK7QString@Base 2.2.0
 _ZN16GLC_WorldTo3dxml10writeEdgesEPK8GLC_Mesh@Base 2.2.0
 _ZN16GLC_WorldTo3dxml11addManifestEv@Base 2.2.0
 _ZN16GLC_WorldTo3dxml11qt_metacallEN11QMetaObject4CallEiPPv@Base 2.2.0
 _ZN16GLC_WorldTo3dxml11qt_metacastEPKc@Base 2.2.0
 _ZN16GLC_WorldTo3dxml11setInteruptEP14QReadWriteLockPb@Base 2.2.0
 _ZN16GLC_WorldTo3dxml11writeHeaderEv@Base 2.2.0
 _ZN16GLC_WorldTo3dxml11xmlFileNameE7QString@Base 2.2.0
 _ZN16GLC_WorldTo3dxml12matrixStringERK13GLC_Matrix4x4@Base 2.2.0
 _ZN16GLC_WorldTo3dxml12symplifyNameE7QString@Base 2.2.0
 _ZN16GLC_WorldTo3dxml13colorToStringERK6QColor@Base 2.2.0
 _ZN16GLC_WorldTo3dxml13exportTo3dxmlERK7QStringNS_10ExportTypeEb@Base 2.2.0
 _ZN16GLC_WorldTo3dxml13writeGeometryEPK8GLC_Mesh@Base 2.2.0
 _ZN16GLC_WorldTo3dxml13writeMaterialEPK12GLC_Material@Base 2.2.0
 _ZN16GLC_WorldTo3dxml14currentQuantumEi@Base 2.2.0
 _ZN16GLC_WorldTo3dxml15writeInstance3DEPK18GLC_StructInstancej@Base 2.2.0
 _ZN16GLC_WorldTo3dxml16staticMetaObjectE@Base 2.2.0
 _ZN16GLC_WorldTo3dxml16writeInstanceRepEPK9GLC_3DRepj@Base 2.2.0
 _ZN16GLC_WorldTo3dxml16writeReference3DEPK19GLC_StructReference@Base 2.2.0
 _ZN16GLC_WorldTo3dxml17writeGeometryFaceEPK8GLC_Meshij@Base 2.2.0
 _ZN16GLC_WorldTo3dxml17writeReferenceRepEPK9GLC_3DRep@Base 2.2.0
 _ZN16GLC_WorldTo3dxml19writeCatMaterialRefERK5QListIP12GLC_MaterialE@Base 2.2.0
 _ZN16GLC_WorldTo3dxml19writeLineAttributesERK6QColor@Base 2.2.0
 _ZN16GLC_WorldTo3dxml20writeCatRepImageFileERK5QListIP12GLC_MaterialE@Base 2.2.0
 _ZN16GLC_WorldTo3dxml21setStreamWriterToFileERK7QString@Base 2.2.0
 _ZN16GLC_WorldTo3dxml21writeImageFileIn3dxmlERK5QListIP12GLC_MaterialE@Base 2.2.0
 _ZN16GLC_WorldTo3dxml22addImageTextureTo3dxmlERK6QImageRK7QString@Base 2.2.0
 _ZN16GLC_WorldTo3dxml22exportReferenceTo3DRepEPK9GLC_3DRepRK7QString@Base 2.2.0
 _ZN16GLC_WorldTo3dxml22representationFileNameEPK9GLC_3DRep@Base 2.2.0
 _ZN16GLC_WorldTo3dxml22writeSurfaceAttributesEPK12GLC_Material@Base 2.2.0
 _ZN16GLC_WorldTo3dxml23exportAssemblyStructureEv@Base 2.2.0
 _ZN16GLC_WorldTo3dxml24writeExtensionAttributesEP14GLC_Attributes@Base 2.2.0
 _ZN16GLC_WorldTo3dxml24writeMaterialAttributtesERK7QStringS2_S2_@Base 2.2.0
 _ZN16GLC_WorldTo3dxml27exportAssemblyFromOccurenceEPK19GLC_StructOccurence@Base 2.2.0
 _ZN16GLC_WorldTo3dxml27writeCATRepresentationImageEPK12GLC_Materialj@Base 2.2.0
 _ZN16GLC_WorldTo3dxml29writeMaterialToCatMaterialRefEPK12GLC_MaterialPj@Base 2.2.0
 _ZN16GLC_WorldTo3dxml33writeOccurenceDefaultViewPropertyEPK19GLC_StructOccurence@Base 2.2.0
 _ZN16GLC_WorldTo3dxml35writeAllMaterialRelatedFilesIn3dxmlEv@Base 2.2.0
 _ZN16GLC_WorldTo3dxml7continuEv@Base 2.2.0
 _ZN16GLC_WorldTo3dxmlC1ERK9GLC_Worldb@Base 2.2.0
 _ZN16GLC_WorldTo3dxmlC2ERK9GLC_Worldb@Base 2.2.0
 _ZN16GLC_WorldTo3dxmlD0Ev@Base 2.2.0
 _ZN16GLC_WorldTo3dxmlD1Ev@Base 2.2.0
 _ZN16GLC_WorldTo3dxmlD2Ev@Base 2.2.0
 _ZN17GLC_RepCrossMover6glDrawEv@Base 2.2.0
 _ZN17GLC_RepCrossMoverC1EP12GLC_Viewport@Base 2.2.0
 _ZN17GLC_RepCrossMoverC1ERKS_@Base 2.2.0
 _ZN17GLC_RepCrossMoverC2EP12GLC_Viewport@Base 2.2.0
 _ZN17GLC_RepCrossMoverC2ERKS_@Base 2.2.0
 _ZN17GLC_RepCrossMoverD0Ev@Base 2.2.0
 _ZN17GLC_RepCrossMoverD1Ev@Base 2.2.0
 _ZN17GLC_RepCrossMoverD2Ev@Base 2.2.0
 _ZN18GLC_3DViewInstance10multMatrixERK13GLC_Matrix4x4@Base 2.2.0
 _ZN18GLC_3DViewInstance11boundingBoxEv@Base 2.2.0
 _ZN18GLC_3DViewInstance11instanciateEv@Base 2.2.0
 _ZN18GLC_3DViewInstance11resetMatrixEv@Base 2.2.0
 _ZN18GLC_3DViewInstance11setGeometryEP12GLC_Geometry@Base 2.2.0
 _ZN18GLC_3DViewInstance18computeBoundingBoxEv@Base 2.2.0
 _ZN18GLC_3DViewInstance18m_GlobalDefaultLODE@Base 2.2.0
 _ZN18GLC_3DViewInstance19setGlobalDefaultLodEi@Base 2.2.0
 _ZN18GLC_3DViewInstance22renderForBodySelectionEv@Base 2.2.0
 _ZN18GLC_3DViewInstance27renderForPrimitiveSelectionEj@Base 2.2.0
 _ZN18GLC_3DViewInstance5clearEv@Base 2.2.0
 _ZN18GLC_3DViewInstance6renderEN3glc10RenderFlagEbP12GLC_Viewport@Base 2.2.0
 _ZN18GLC_3DViewInstance7m_MutexE@Base 2.2.0
 _ZN18GLC_3DViewInstance8choseLodERK15GLC_BoundingBoxP12GLC_Viewportb@Base 2.2.0
 _ZN18GLC_3DViewInstance9setMatrixERK13GLC_Matrix4x4@Base 2.2.0
 _ZN18GLC_3DViewInstance9translateEddd@Base 2.2.0
 _ZN18GLC_3DViewInstanceC1EP12GLC_Geometry@Base 2.2.0
 _ZN18GLC_3DViewInstanceC1ERK9GLC_3DRep@Base 2.2.0
 _ZN18GLC_3DViewInstanceC1ERKS_@Base 2.2.0
 _ZN18GLC_3DViewInstanceC1Ev@Base 2.2.0
 _ZN18GLC_3DViewInstanceC2EP12GLC_Geometry@Base 2.2.0
 _ZN18GLC_3DViewInstanceC2ERK9GLC_3DRep@Base 2.2.0
 _ZN18GLC_3DViewInstanceC2ERKS_@Base 2.2.0
 _ZN18GLC_3DViewInstanceC2Ev@Base 2.2.0
 _ZN18GLC_3DViewInstanceD0Ev@Base 2.2.0
 _ZN18GLC_3DViewInstanceD1Ev@Base 2.2.0
 _ZN18GLC_3DViewInstanceD2Ev@Base 2.2.0
 _ZN18GLC_3DViewInstanceaSERKS_@Base 2.2.0
 _ZN18GLC_ColladaToWorld10createMeshEv@Base 2.2.0
 _ZN18GLC_ColladaToWorld10getContentERK7QString@Base 2.2.0
 _ZN18GLC_ColladaToWorld10loadEffectEv@Base 2.2.0
 _ZN18GLC_ColladaToWorld10rotateNodeEPNS_11ColladaNodeE@Base 2.2.0
 _ZN18GLC_ColladaToWorld11ColladaNodeD1Ev@Base 2.2.0
 _ZN18GLC_ColladaToWorld11goToElementERK7QString@Base 2.2.0
 _ZN18GLC_ColladaToWorld11loadSurfaceERK7QString@Base 2.2.0
 _ZN18GLC_ColladaToWorld11qt_metacallEN11QMetaObject4CallEiPPv@Base 2.2.0
 _ZN18GLC_ColladaToWorld11qt_metacastEPKc@Base 2.2.0
 _ZN18GLC_ColladaToWorld12loadAccessorEv@Base 2.2.0
 _ZN18GLC_ColladaToWorld12loadGeometryEv@Base 2.2.0
 _ZN18GLC_ColladaToWorld12loadMaterialEv@Base 2.2.0
 _ZN18GLC_ColladaToWorld12loadNewParamEv@Base 2.2.0
 _ZN18GLC_ColladaToWorld12loadPolygonsEv@Base 2.2.0
 _ZN18GLC_ColladaToWorld12loadPolylistEv@Base 2.2.0
 _ZN18GLC_ColladaToWorld12loadVerticesEv@Base 2.2.0
 _ZN18GLC_ColladaToWorld12readXmlColorEv@Base 2.2.0
 _ZN18GLC_ColladaToWorld13loadSampler2DERK7QString@Base 2.2.0
 _ZN18GLC_ColladaToWorld13loadShininessERK7QString@Base 2.2.0
 _ZN18GLC_ColladaToWorld13loadTechniqueEv@Base 2.2.0
 _ZN18GLC_ColladaToWorld13loadTrianglesEv@Base 2.2.0
 _ZN18GLC_ColladaToWorld13readAttributeERK7QStringb@Base 2.2.0
 _ZN18GLC_ColladaToWorld13translateNodeEPNS_11ColladaNodeE@Base 2.2.0
 _ZN18GLC_ColladaToWorld14currentQuantumEi@Base 2.2.0
 _ZN18GLC_ColladaToWorld14goToEndElementERK7QString@Base 2.2.0
 _ZN18GLC_ColladaToWorld14loadControllerEv@Base 2.2.0
 _ZN18GLC_ColladaToWorld14throwExceptionERK7QString@Base 2.2.0
 _ZN18GLC_ColladaToWorld15loadTransparentEv@Base 2.2.0
 _ZN18GLC_ColladaToWorld16checkForXmlErrorERK7QString@Base 2.2.0
 _ZN18GLC_ColladaToWorld16createSceneGraphEv@Base 2.2.0
 _ZN18GLC_ColladaToWorld16loadInstanceNodeEPNS_11ColladaNodeE@Base 2.2.0
 _ZN18GLC_ColladaToWorld16loadLibraryImageEv@Base 2.2.0
 _ZN18GLC_ColladaToWorld16loadLibraryNodesEv@Base 2.2.0
 _ZN18GLC_ColladaToWorld16loadTransparencyERK7QString@Base 2.2.0
 _ZN18GLC_ColladaToWorld16loadVisualScenesEv@Base 2.2.0
 _ZN18GLC_ColladaToWorld16staticMetaObjectE@Base 2.2.0
 _ZN18GLC_ColladaToWorld17composeMatrixNodeEPNS_11ColladaNodeE@Base 2.2.0
 _ZN18GLC_ColladaToWorld17loadProfileCommonEv@Base 2.2.0
 _ZN18GLC_ColladaToWorld17updateProgressBarEv@Base 2.2.0
 _ZN18GLC_ColladaToWorld18loadLibraryEffectsEv@Base 2.2.0
 _ZN18GLC_ColladaToWorld18loadVertexBulkDataEv@Base 2.2.0
 _ZN18GLC_ColladaToWorld19loadTechniqueCommonEv@Base 2.2.0
 _ZN18GLC_ColladaToWorld20loadInstanceGeometryEPNS_11ColladaNodeE@Base 2.2.0
 _ZN18GLC_ColladaToWorld20loadLibraryMaterialsEv@Base 2.2.0
 _ZN18GLC_ColladaToWorld21loadLibraryContollersEv@Base 2.2.0
 _ZN18GLC_ColladaToWorld21loadLibraryGeometriesEv@Base 2.2.0
 _ZN18GLC_ColladaToWorld21loadMaterialTechniqueERK7QString@Base 2.2.0
 _ZN18GLC_ColladaToWorld22CreateWorldFromColladaER5QFile@Base 2.2.0
 _ZN18GLC_ColladaToWorld22loadInstanceControllerEPNS_11ColladaNodeE@Base 2.2.0
 _ZN18GLC_ColladaToWorld23createOccurenceFromNodeEPNS_11ColladaNodeE@Base 2.2.0
 _ZN18GLC_ColladaToWorld23linkTexturesToMaterialsEv@Base 2.2.0
 _ZN18GLC_ColladaToWorld24addPolylistToCurrentMeshERK5QListINS_9InputDataEERKS0_IiES7_RK7QString@Base 2.2.0
 _ZN18GLC_ColladaToWorld24loadCommonColorOrTextureERK7QString@Base 2.2.0
 _ZN18GLC_ColladaToWorld25addTrianglesToCurrentMeshERK5QListINS_9InputDataEERKS0_IiERK7QString@Base 2.2.0
 _ZN18GLC_ColladaToWorld44computeNormalOfCurrentPrimitiveOfCurrentMeshEi@Base 2.2.0
 _ZN18GLC_ColladaToWorld5clearEv@Base 2.2.0
 _ZN18GLC_ColladaToWorld8loadMeshEv@Base 2.2.0
 _ZN18GLC_ColladaToWorld8loadNodeEPNS_11ColladaNodeE@Base 2.2.0
 _ZN18GLC_ColladaToWorld9loadImageEv@Base 2.2.0
 _ZN18GLC_ColladaToWorld9loadSceneEv@Base 2.2.0
 _ZN18GLC_ColladaToWorld9scaleNodeEPNS_11ColladaNodeE@Base 2.2.0
 _ZN18GLC_ColladaToWorldC1Ev@Base 2.2.0
 _ZN18GLC_ColladaToWorldC2Ev@Base 2.2.0
 _ZN18GLC_ColladaToWorldD0Ev@Base 2.2.0
 _ZN18GLC_ColladaToWorldD1Ev@Base 2.2.0
 _ZN18GLC_ColladaToWorldD2Ev@Base 2.2.0
 _ZN18GLC_PrimitiveGroup12addTrianglesERK5QListIjEj@Base 2.2.0
 _ZN18GLC_PrimitiveGroup15addTrianglesFanERK5QListIjEj@Base 2.2.0
 _ZN18GLC_PrimitiveGroup15changeToVboModeEv@Base 2.2.0
 _ZN18GLC_PrimitiveGroup17addTrianglesStripERK5QListIjEj@Base 2.2.0
 _ZN18GLC_PrimitiveGroup18setTrianglesOffsetEPv@Base 2.2.0
 _ZN18GLC_PrimitiveGroup19setTrianglesOffsetiEi@Base 2.2.0
 _ZN18GLC_PrimitiveGroup25setBaseTrianglesFanOffsetEPv@Base 2.2.0
 _ZN18GLC_PrimitiveGroup26setBaseTrianglesFanOffsetiEi@Base 2.2.0
 _ZN18GLC_PrimitiveGroup27setBaseTrianglesStripOffsetEPv@Base 2.2.0
 _ZN18GLC_PrimitiveGroup28setBaseTrianglesStripOffsetiEi@Base 2.2.0
 _ZN18GLC_PrimitiveGroup5clearEv@Base 2.2.0
 _ZN18GLC_PrimitiveGroup8chunckIDEv@Base 2.2.0
 _ZN18GLC_PrimitiveGroup9m_ChunkIdE@Base 2.2.0
 _ZN18GLC_PrimitiveGroupC1ERKS_@Base 2.2.0
 _ZN18GLC_PrimitiveGroupC1ERKS_j@Base 2.2.0
 _ZN18GLC_PrimitiveGroupC1Ej@Base 2.2.0
 _ZN18GLC_PrimitiveGroupC2ERKS_@Base 2.2.0
 _ZN18GLC_PrimitiveGroupC2ERKS_j@Base 2.2.0
 _ZN18GLC_PrimitiveGroupC2Ej@Base 2.2.0
 _ZN18GLC_PrimitiveGroupD1Ev@Base 2.2.0
 _ZN18GLC_PrimitiveGroupD2Ev@Base 2.2.0
 _ZN18GLC_PrimitiveGroupaSERKS_@Base 2.2.0
 _ZN18GLC_SetTargetMover4initERK13GLC_UserInput@Base 2.2.0
 _ZN18GLC_SetTargetMover4moveERK13GLC_UserInput@Base 2.2.0
 _ZN18GLC_SetTargetMoverC1EP12GLC_ViewportRK5QListIP12GLC_RepMoverE@Base 2.2.0
 _ZN18GLC_SetTargetMoverC1ERKS_@Base 2.2.0
 _ZN18GLC_SetTargetMoverC2EP12GLC_ViewportRK5QListIP12GLC_RepMoverE@Base 2.2.0
 _ZN18GLC_SetTargetMoverC2ERKS_@Base 2.2.0
 _ZN18GLC_SetTargetMoverD0Ev@Base 2.2.0
 _ZN18GLC_SetTargetMoverD1Ev@Base 2.2.0
 _ZN18GLC_SetTargetMoverD2Ev@Base 2.2.0
 _ZN18GLC_StructInstance12setReferenceEP19GLC_StructReference@Base 2.2.0
 _ZN18GLC_StructInstance4moveERK13GLC_Matrix4x4@Base 2.2.0
 _ZN18GLC_StructInstanceC1EP19GLC_StructReference@Base 2.2.0
 _ZN18GLC_StructInstanceC1EP7GLC_Rep@Base 2.2.0
 _ZN18GLC_StructInstanceC1EPS_@Base 2.2.0
 _ZN18GLC_StructInstanceC1ERK7QString@Base 2.2.0
 _ZN18GLC_StructInstanceC1ERKS_@Base 2.2.0
 _ZN18GLC_StructInstanceC2EP19GLC_StructReference@Base 2.2.0
 _ZN18GLC_StructInstanceC2EP7GLC_Rep@Base 2.2.0
 _ZN18GLC_StructInstanceC2EPS_@Base 2.2.0
 _ZN18GLC_StructInstanceC2ERK7QString@Base 2.2.0
 _ZN18GLC_StructInstanceC2ERKS_@Base 2.2.0
 _ZN18GLC_StructInstanceD0Ev@Base 2.2.0
 _ZN18GLC_StructInstanceD1Ev@Base 2.2.0
 _ZN18GLC_StructInstanceD2Ev@Base 2.2.0
 _ZN18GLC_TrackBallMover4initERK13GLC_UserInput@Base 2.2.0
 _ZN18GLC_TrackBallMover4moveERK13GLC_UserInput@Base 2.2.0
 _ZN18GLC_TrackBallMover8setRatioEd@Base 2.2.0
 _ZN18GLC_TrackBallMoverC1EP12GLC_ViewportRK5QListIP12GLC_RepMoverE@Base 2.2.0
 _ZN18GLC_TrackBallMoverC1ERKS_@Base 2.2.0
 _ZN18GLC_TrackBallMoverC2EP12GLC_ViewportRK5QListIP12GLC_RepMoverE@Base 2.2.0
 _ZN18GLC_TrackBallMoverC2ERKS_@Base 2.2.0
 _ZN18GLC_TrackBallMoverD0Ev@Base 2.2.0
 _ZN18GLC_TrackBallMoverD1Ev@Base 2.2.0
 _ZN18GLC_TrackBallMoverD2Ev@Base 2.2.0
 _ZN18GLC_TurnTableMover4initERK13GLC_UserInput@Base 2.2.0
 _ZN18GLC_TurnTableMover4moveERK13GLC_UserInput@Base 2.2.0
 _ZN18GLC_TurnTableMoverC1EP12GLC_ViewportRK5QListIP12GLC_RepMoverE@Base 2.2.0
 _ZN18GLC_TurnTableMoverC1ERKS_@Base 2.2.0
 _ZN18GLC_TurnTableMoverC2EP12GLC_ViewportRK5QListIP12GLC_RepMoverE@Base 2.2.0
 _ZN18GLC_TurnTableMoverC2ERKS_@Base 2.2.0
 _ZN18GLC_TurnTableMoverD0Ev@Base 2.2.0
 _ZN18GLC_TurnTableMoverD1Ev@Base 2.2.0
 _ZN18GLC_TurnTableMoverD2Ev@Base 2.2.0
 _ZN18QAlgorithmsPrivate11qSortHelperIN5QListIN16GLC_3dxmlToWorld8AssyLinkEE8iteratorES3_5qLessIS3_EEEvT_S8_RKT0_T1_@Base 2.2.0
 _ZN19GLC_3DWidgetManagerC1EP12GLC_Viewport@Base 2.2.0
 _ZN19GLC_3DWidgetManagerC1ERKS_@Base 2.2.0
 _ZN19GLC_3DWidgetManagerC2EP12GLC_Viewport@Base 2.2.0
 _ZN19GLC_3DWidgetManagerC2ERKS_@Base 2.2.0
 _ZN19GLC_3DWidgetManagerD1Ev@Base 2.2.0
 _ZN19GLC_3DWidgetManagerD2Ev@Base 2.2.0
 _ZN19GLC_MoverController10setNoMoverEv@Base 2.2.0
 _ZN19GLC_MoverController11qt_metacallEN11QMetaObject4CallEiPPv@Base 2.2.0
 _ZN19GLC_MoverController11qt_metacastEPKc@Base 2.2.0
 _ZN19GLC_MoverController11removeMoverEi@Base 2.2.0
 _ZN19GLC_MoverController13repaintNeededEv@Base 2.2.0
 _ZN19GLC_MoverController14setActiveMoverEiRK13GLC_UserInput@Base 2.2.0
 _ZN19GLC_MoverController16staticMetaObjectE@Base 2.2.0
 _ZN19GLC_MoverController8addMoverEP9GLC_Moveri@Base 2.2.0
 _ZN19GLC_MoverControllerC1ERKS_@Base 2.2.0
 _ZN19GLC_MoverControllerC1Ev@Base 2.2.0
 _ZN19GLC_MoverControllerC2ERKS_@Base 2.2.0
 _ZN19GLC_MoverControllerC2Ev@Base 2.2.0
 _ZN19GLC_MoverControllerD0Ev@Base 2.2.0
 _ZN19GLC_MoverControllerD1Ev@Base 2.2.0
 _ZN19GLC_MoverControllerD2Ev@Base 2.2.0
 _ZN19GLC_MoverControlleraSERKS_@Base 2.2.0
 _ZN19GLC_OpenGlExceptionC1ERK7QStringj@Base 2.2.0
 _ZN19GLC_OpenGlExceptionC2ERK7QStringj@Base 2.2.0
 _ZN19GLC_OpenGlExceptionD0Ev@Base 2.2.0
 _ZN19GLC_OpenGlExceptionD1Ev@Base 2.2.0
 _ZN19GLC_OpenGlExceptionD2Ev@Base 2.2.0
 _ZN19GLC_PullManipulator12doManipulateERK12GLC_Vector3dS2_@Base 2.2.0
 _ZN19GLC_PullManipulator19setPullingDirectionERK12GLC_Vector3d@Base 2.2.0
 _ZN19GLC_PullManipulatorC1EP12GLC_ViewportRK12GLC_Vector3d@Base 2.2.0
 _ZN19GLC_PullManipulatorC1ERKS_@Base 2.2.0
 _ZN19GLC_PullManipulatorC2EP12GLC_ViewportRK12GLC_Vector3d@Base 2.2.0
 _ZN19GLC_PullManipulatorC2ERKS_@Base 2.2.0
 _ZN19GLC_PullManipulatorD0Ev@Base 2.2.0
 _ZN19GLC_PullManipulatorD1Ev@Base 2.2.0
 _ZN19GLC_PullManipulatorD2Ev@Base 2.2.0
 _ZN19GLC_StructOccurence10makeOrphanEv@Base 2.2.0
 _ZN19GLC_StructOccurence11removeChildEPS_@Base 2.2.0
 _ZN19GLC_StructOccurence12setReferenceEP19GLC_StructReference@Base 2.2.0
 _ZN19GLC_StructOccurence13setVisibilityEb@Base 2.2.0
 _ZN19GLC_StructOccurence14reverseNormalsEv@Base 2.2.0
 _ZN19GLC_StructOccurence14setWorldHandleEP15GLC_WorldHandle@Base 2.2.0
 _ZN19GLC_StructOccurence17parentsReferencesEPKS_@Base 2.2.0
 _ZN19GLC_StructOccurence18loadRepresentationEv@Base 2.2.0
 _ZN19GLC_StructOccurence19removeEmptyChildrenEv@Base 2.2.0
 _ZN19GLC_StructOccurence19setRenderPropertiesERK20GLC_RenderProperties@Base 2.2.0
 _ZN19GLC_StructOccurence20create3DViewInstanceEv@Base 2.2.0
 _ZN19GLC_StructOccurence20remove3DViewInstanceEv@Base 2.2.0
 _ZN19GLC_StructOccurence20unloadRepresentationEv@Base 2.2.0
 _ZN19GLC_StructOccurence20updateAbsoluteMatrixEv@Base 2.2.0
 _ZN19GLC_StructOccurence21updateOccurenceNumberEj@Base 2.2.0
 _ZN19GLC_StructOccurence28updateChildrenAbsoluteMatrixEv@Base 2.2.0
 _ZN19GLC_StructOccurence6detachEv@Base 2.2.0
 _ZN19GLC_StructOccurence8addChildEP18GLC_StructInstance@Base 2.2.0
 _ZN19GLC_StructOccurence8addChildEPS_@Base 2.2.0
 _ZN19GLC_StructOccurenceC1EP15GLC_WorldHandleRKS_b@Base 2.2.0
 _ZN19GLC_StructOccurenceC1EP18GLC_StructInstanceP15GLC_WorldHandlej@Base 2.2.0
 _ZN19GLC_StructOccurenceC1EP9GLC_3DRep@Base 2.2.0
 _ZN19GLC_StructOccurenceC1Ev@Base 2.2.0
 _ZN19GLC_StructOccurenceC2EP15GLC_WorldHandleRKS_b@Base 2.2.0
 _ZN19GLC_StructOccurenceC2EP18GLC_StructInstanceP15GLC_WorldHandlej@Base 2.2.0
 _ZN19GLC_StructOccurenceC2EP9GLC_3DRep@Base 2.2.0
 _ZN19GLC_StructOccurenceC2Ev@Base 2.2.0
 _ZN19GLC_StructOccurenceD0Ev@Base 2.2.0
 _ZN19GLC_StructOccurenceD1Ev@Base 2.2.0
 _ZN19GLC_StructOccurenceD2Ev@Base 2.2.0
 _ZN19GLC_StructReference17setRepresentationERK9GLC_3DRep@Base 2.2.0
 _ZN19GLC_StructReference18loadRepresentationEv@Base 2.2.0
 _ZN19GLC_StructReference20unloadRepresentationEv@Base 2.2.0
 _ZN19GLC_StructReference21setRepresentationNameERK7QString@Base 2.2.0
 _ZN19GLC_StructReference8addChildEP19GLC_StructOccurence@Base 2.2.0
 _ZN19GLC_StructReferenceC1EP7GLC_Rep@Base 2.2.0
 _ZN19GLC_StructReferenceC1ERK7QString@Base 2.2.0
 _ZN19GLC_StructReferenceC1ERKS_@Base 2.2.0
 _ZN19GLC_StructReferenceC2EP7GLC_Rep@Base 2.2.0
 _ZN19GLC_StructReferenceC2ERK7QString@Base 2.2.0
 _ZN19GLC_StructReferenceC2ERKS_@Base 2.2.0
 _ZN19GLC_StructReferenceD0Ev@Base 2.2.0
 _ZN19GLC_StructReferenceD1Ev@Base 2.2.0
 _ZN19GLC_StructReferenceD2Ev@Base 2.2.0
 _ZN19GLC_StructReferenceaSERKS_@Base 2.2.0
 _ZN20GLC_3DViewCollection10bindShaderEj@Base 2.2.0
 _ZN20GLC_3DViewCollection11boundingBoxEb@Base 2.2.0
 _ZN20GLC_3DViewCollection11unselectAllEv@Base 2.2.0
 _ZN20GLC_3DViewCollection12unBindShaderEj@Base 2.2.0
 _ZN20GLC_3DViewCollection13setVisibilityEjb@Base 2.2.0
 _ZN20GLC_3DViewCollection14instanceHandleEj@Base 2.2.0
 _ZN20GLC_3DViewCollection15instancesHandleEv@Base 2.2.0
 _ZN20GLC_3DViewCollection15unBindAllShaderEv@Base 2.2.0
 _ZN20GLC_3DViewCollection17renderShaderGroupEN3glc10RenderFlagE@Base 2.2.0
 _ZN20GLC_3DViewCollection18changeShadingGroupEjj@Base 2.2.0
 _ZN20GLC_3DViewCollection20setPolygonModeForAllEjj@Base 2.2.0
 _ZN20GLC_3DViewCollection21bindSpacePartitioningEP21GLC_SpacePartitioning@Base 2.2.0
 _ZN20GLC_3DViewCollection22visibleInstancesHandleEv@Base 2.2.0
 _ZN20GLC_3DViewCollection23unbindSpacePartitioningEv@Base 2.2.0
 _ZN20GLC_3DViewCollection23viewableInstancesHandleEv@Base 2.2.0
 _ZN20GLC_3DViewCollection27updateInstanceViewableStateEP13GLC_Matrix4x4@Base 2.2.0
 _ZN20GLC_3DViewCollection27updateInstanceViewableStateERK11GLC_Frustum@Base 2.2.0
 _ZN20GLC_3DViewCollection3addERK18GLC_3DViewInstancej@Base 2.2.0
 _ZN20GLC_3DViewCollection5clearEv@Base 2.2.0
 _ZN20GLC_3DViewCollection6glDrawEjN3glc10RenderFlagE@Base 2.2.0
 _ZN20GLC_3DViewCollection6removeEj@Base 2.2.0
 _ZN20GLC_3DViewCollection6renderEjN3glc10RenderFlagE@Base 2.2.0
 _ZN20GLC_3DViewCollection6selectEjb@Base 2.2.0
 _ZN20GLC_3DViewCollection7hideAllEv@Base 2.2.0
 _ZN20GLC_3DViewCollection7showAllEv@Base 2.2.0
 _ZN20GLC_3DViewCollection8unselectEj@Base 2.2.0
 _ZN20GLC_3DViewCollection9selectAllEb@Base 2.2.0
 _ZN20GLC_3DViewCollectionC1Ev@Base 2.2.0
 _ZN20GLC_3DViewCollectionC2Ev@Base 2.2.0
 _ZN20GLC_3DViewCollectionD0Ev@Base 2.2.0
 _ZN20GLC_3DViewCollectionD1Ev@Base 2.2.0
 _ZN20GLC_3DViewCollectionD2Ev@Base 2.2.0
 _ZN20GLC_RenderProperties11useMaterialEP12GLC_Material@Base 2.2.0
 _ZN20GLC_RenderProperties20addSelectedPrimitiveEji@Base 2.2.0
 _ZN20GLC_RenderProperties20setOverwriteMaterialEP12GLC_Material@Base 2.2.0
 _ZN20GLC_RenderProperties23clearSelectedPrimitivesEv@Base 2.2.0
 _ZN20GLC_RenderProperties28addSetOfSelectedPrimitivesIdERK4QSetIjEi@Base 2.2.0
 _ZN20GLC_RenderProperties29addOverwritePrimitiveMaterialEjP12GLC_Materiali@Base 2.2.0
 _ZN20GLC_RenderProperties32clearOverwritePrimitiveMaterialsEv@Base 2.2.0
 _ZN20GLC_RenderProperties5clearEv@Base 2.2.0
 _ZN20GLC_RenderPropertiesC1ERKS_@Base 2.2.0
 _ZN20GLC_RenderPropertiesC1Ev@Base 2.2.0
 _ZN20GLC_RenderPropertiesC2ERKS_@Base 2.2.0
 _ZN20GLC_RenderPropertiesC2Ev@Base 2.2.0
 _ZN20GLC_RenderPropertiesD0Ev@Base 2.2.0
 _ZN20GLC_RenderPropertiesD1Ev@Base 2.2.0
 _ZN20GLC_RenderPropertiesD2Ev@Base 2.2.0
 _ZN20GLC_RenderPropertiesaSERKS_@Base 2.2.0
 _ZN20GLC_RenderStatistics12addTrianglesEj@Base 2.2.0
 _ZN20GLC_RenderStatistics13m_IsActivatedE@Base 2.2.0
 _ZN20GLC_RenderStatistics13triangleCountEv@Base 2.2.0
 _ZN20GLC_RenderStatistics17setActivationFlagEb@Base 2.2.0
 _ZN20GLC_RenderStatistics24m_LastRenderPolygonCountE@Base 2.2.0
 _ZN20GLC_RenderStatistics25m_LastRenderGeometryCountE@Base 2.2.0
 _ZN20GLC_RenderStatistics5resetEv@Base 2.2.0
 _ZN20GLC_RenderStatistics9activatedEv@Base 2.2.0
 _ZN20GLC_RenderStatistics9addBodiesEj@Base 2.2.0
 _ZN20GLC_RenderStatistics9bodyCountEv@Base 2.2.0
 _ZN20GLC_RenderStatisticsC1Ev@Base 2.2.0
 _ZN20GLC_RenderStatisticsC2Ev@Base 2.2.0
 _ZN20GLC_RenderStatisticsD0Ev@Base 2.2.0
 _ZN20GLC_RenderStatisticsD1Ev@Base 2.2.0
 _ZN20GLC_RenderStatisticsD2Ev@Base 2.2.0
 _ZN20QXmlStreamAttributesD1Ev@Base 2.2.0
 _ZN21GLC_RepTrackBallMover12setMainColorERK6QColor@Base 2.2.0
 _ZN21GLC_RepTrackBallMover13computeRadiusEv@Base 2.2.0
 _ZN21GLC_RepTrackBallMover4initEv@Base 2.2.0
 _ZN21GLC_RepTrackBallMover6glDrawEv@Base 2.2.0
 _ZN21GLC_RepTrackBallMover6updateEv@Base 2.2.0
 _ZN21GLC_RepTrackBallMoverC1EP12GLC_Viewport@Base 2.2.0
 _ZN21GLC_RepTrackBallMoverC1ERKS_@Base 2.2.0
 _ZN21GLC_RepTrackBallMoverC2EP12GLC_Viewport@Base 2.2.0
 _ZN21GLC_RepTrackBallMoverC2ERKS_@Base 2.2.0
 _ZN21GLC_RepTrackBallMoverD0Ev@Base 2.2.0
 _ZN21GLC_RepTrackBallMoverD1Ev@Base 2.2.0
 _ZN21GLC_RepTrackBallMoverD2Ev@Base 2.2.0
 _ZN21GLC_SelectionMaterial10initShaderEPK10QGLContext@Base 2.2.0
 _ZN21GLC_SelectionMaterial10setShadersER5QFileS1_PK10QGLContext@Base 2.2.0
 _ZN21GLC_SelectionMaterial11m_pMaterialE@Base 2.2.0
 _ZN21GLC_SelectionMaterial11unUseShaderEv@Base 2.2.0
 _ZN21GLC_SelectionMaterial11useMaterialEP12GLC_Material@Base 2.2.0
 _ZN21GLC_SelectionMaterial12deleteShaderEPK10QGLContext@Base 2.2.0
 _ZN21GLC_SelectionMaterial21m_SelectionMaterialIdE@Base 2.2.0
 _ZN21GLC_SelectionMaterial21m_SelectionShaderHashE@Base 2.2.0
 _ZN21GLC_SelectionMaterial23useDefautSelectionColorEv@Base 2.2.0
 _ZN21GLC_SelectionMaterial9glExecuteEv@Base 2.2.0
 _ZN21GLC_SelectionMaterial9useShaderEv@Base 2.2.0
 _ZN21GLC_SelectionMaterialC1Ev@Base 2.2.0
 _ZN21GLC_SelectionMaterialC2Ev@Base 2.2.0
 _ZN21GLC_SpacePartitioningC1EP20GLC_3DViewCollection@Base 2.2.0
 _ZN21GLC_SpacePartitioningC1ERKS_@Base 2.2.0
 _ZN21GLC_SpacePartitioningC2EP20GLC_3DViewCollection@Base 2.2.0
 _ZN21GLC_SpacePartitioningC2ERKS_@Base 2.2.0
 _ZN21GLC_SpacePartitioningD0Ev@Base 2.2.0
 _ZN21GLC_SpacePartitioningD1Ev@Base 2.2.0
 _ZN21GLC_SpacePartitioningD2Ev@Base 2.2.0
 _ZN23GLC_AbstractManipulator10manipulateERK12GLC_Vector3d@Base 2.2.0
 _ZN23GLC_AbstractManipulator20enterManipulateStateERK12GLC_Vector3d@Base 2.2.0
 _ZN23GLC_AbstractManipulatorC1EP12GLC_Viewport@Base 2.2.0
 _ZN23GLC_AbstractManipulatorC1ERKS_@Base 2.2.0
 _ZN23GLC_AbstractManipulatorC2EP12GLC_Viewport@Base 2.2.0
 _ZN23GLC_AbstractManipulatorC2ERKS_@Base 2.2.0
 _ZN23GLC_AbstractManipulatorD0Ev@Base 2.2.0
 _ZN23GLC_AbstractManipulatorD1Ev@Base 2.2.0
 _ZN23GLC_AbstractManipulatorD2Ev@Base 2.2.0
 _ZN23GLC_FileFormatExceptionC1ERK7QStringS2_NS_13ExceptionTypeE@Base 2.2.0
 _ZN23GLC_FileFormatExceptionC2ERK7QStringS2_NS_13ExceptionTypeE@Base 2.2.0
 _ZN23GLC_FileFormatExceptionD0Ev@Base 2.2.0
 _ZN23GLC_FileFormatExceptionD1Ev@Base 2.2.0
 _ZN23GLC_FileFormatExceptionD2Ev@Base 2.2.0
 _ZN23GLC_RotationManipulator12doManipulateERK12GLC_Vector3dS2_@Base 2.2.0
 _ZN23GLC_RotationManipulatorC1EP12GLC_ViewportRK10GLC_Line3d@Base 2.2.0
 _ZN23GLC_RotationManipulatorC1ERKS_@Base 2.2.0
 _ZN23GLC_RotationManipulatorC2EP12GLC_ViewportRK10GLC_Line3d@Base 2.2.0
 _ZN23GLC_RotationManipulatorC2ERKS_@Base 2.2.0
 _ZN23GLC_RotationManipulatorD0Ev@Base 2.2.0
 _ZN23GLC_RotationManipulatorD1Ev@Base 2.2.0
 _ZN23GLC_RotationManipulatorD2Ev@Base 2.2.0
 _ZN25GLC_3DWidgetManagerHandle11add3DWidgetEP12GLC_3DWidget@Base 2.2.0
 _ZN25GLC_3DWidgetManagerHandle14mouseMoveEventEP11QMouseEvent@Base 2.2.0
 _ZN25GLC_3DWidgetManagerHandle14remove3DWidgetEj@Base 2.2.0
 _ZN25GLC_3DWidgetManagerHandle15mousePressEventEP11QMouseEvent@Base 2.2.0
 _ZN25GLC_3DWidgetManagerHandle16setWidgetVisibleEjb@Base 2.2.0
 _ZN25GLC_3DWidgetManagerHandle17add3DViewInstanceERK18GLC_3DViewInstancej@Base 2.2.0
 _ZN25GLC_3DWidgetManagerHandle17mouseReleaseEventEP11QMouseEvent@Base 2.2.0
 _ZN25GLC_3DWidgetManagerHandle20remove3DViewInstanceEj@Base 2.2.0
 _ZN25GLC_3DWidgetManagerHandle21mouseDoubleClickEventEP11QMouseEvent@Base 2.2.0
 _ZN25GLC_3DWidgetManagerHandle4takeEj@Base 2.2.0
 _ZN25GLC_3DWidgetManagerHandle5clearEv@Base 2.2.0
 _ZN25GLC_3DWidgetManagerHandle6renderEv@Base 2.2.0
 _ZN25GLC_3DWidgetManagerHandle6selectEP11QMouseEvent@Base 2.2.0
 _ZN25GLC_3DWidgetManagerHandleC1EP12GLC_Viewport@Base 2.2.0
 _ZN25GLC_3DWidgetManagerHandleC2EP12GLC_Viewport@Base 2.2.0
 _ZN25GLC_3DWidgetManagerHandleD1Ev@Base 2.2.0
 _ZN25GLC_3DWidgetManagerHandleD2Ev@Base 2.2.0
 _ZN3glc10filePrefixEv@Base 2.2.0
 _ZN3glc10isDiagonalERK5QListI12GLC_Vector2dEii@Base 2.2.0
 _ZN3glc11geomIdMutexE@Base 2.2.0
 _ZN3glc11triangulateER5QListI12GLC_Vector2dERS0_IiES5_@Base 2.2.0
 _ZN3glc11userIdMutexE@Base 2.2.0
 _ZN3glc12archiveInfixEv@Base 2.2.0
 _ZN3glc12isFileStringERK7QString@Base 2.2.0
 _ZN3glc13GLC_GenGeomIDEv@Base 2.2.0
 _ZN3glc13GLC_GenUserIDEv@Base 2.2.0
 _ZN3glc13archivePrefixEv@Base 2.2.0
 _ZN3glc13isIntersectedERK12GLC_Vector2dS2_S2_S2_@Base 2.2.0
 _ZN3glc13segmentInConeERK12GLC_Vector2dS2_S2_S2_@Base 2.2.0
 _ZN3glc15archiveFileNameERK7QString@Base 2.2.0
 _ZN3glc15builtFileStringERK7QStringS2_@Base 2.2.0
 _ZN3glc15isArchiveStringERK7QString@Base 2.2.0
 _ZN3glc15polygonIsConvexEP5QListIjERKS0_IfE@Base 2.2.0
 _ZN3glc15widget3dIdMutexE@Base 2.2.0
 _ZN3glc16findIntersectionERK12GLC_Vector2dS2_S2_S2_@Base 2.2.0
 _ZN3glc16findIntersectionERKdS1_S1_S1_@Base 2.2.0
 _ZN3glc16loadVboExtensionEv@Base 2.2.0
 _ZN3glc17GLC_Gen3DWidgetIDEv@Base 2.2.0
 _ZN3glc17loadGlSlExtensionEv@Base 2.2.0
 _ZN3glc17polygon2DIsConvexERK5QListI12GLC_Vector2dE@Base 2.2.0
 _ZN3glc18builtArchiveStringERK7QStringS2_@Base 2.2.0
 _ZN3glc18lineIntersectPlaneERK10GLC_Line3dRK9GLC_PlaneP12GLC_Vector3d@Base 2.2.0
 _ZN3glc18triangulatePolygonEP5QListIjERKS0_IfE@Base 2.2.0
 _ZN3glc19shadingGroupIdMutexE@Base 2.2.0
 _ZN3glc20GLC_GenShaderGroupIDEv@Base 2.2.0
 _ZN3glc20archiveEntryFileNameERK7QString@Base 2.2.0
 _ZN3glc20extensionIsSupportedERK7QString@Base 2.2.0
 _ZN3glc23isIntersectedRaySegmentERK12GLC_Vector2dS2_S2_S2_@Base 2.2.0
 _ZN3glc24loadPointSpriteExtensionEv@Base 2.2.0
 _ZN3glc25isCounterclockwiseOrderedERK5QListI12GLC_Vector2dE@Base 2.2.0
 _ZN3glc7iDMutexE@Base 2.2.0
 _ZN3glc7projectERK12GLC_Vector3dRK10GLC_Line3d@Base 2.2.0
 _ZN3glc9GLC_GenIDEv@Base 2.2.0
 _ZN3glc9fileInfixEv@Base 2.2.0
 _ZN4QSetI7QStringE6insertERKS0_@Base 2.2.0
 _ZN4QSetI7QStringED1Ev@Base 2.2.0
 _ZN4QSetIK7QStringED1Ev@Base 2.2.0
 _ZN4QSetIP12GLC_MaterialED1Ev@Base 2.2.0
 _ZN4QSetIP18GLC_3DViewInstanceED1Ev@Base 2.2.0
 _ZN4QSetIP18GLC_StructInstanceED1Ev@Base 2.2.0
 _ZN4QSetIP19GLC_StructOccurenceED1Ev@Base 2.2.0
 _ZN4QSetIP19GLC_StructReferenceED1Ev@Base 2.2.0
 _ZN4QSetIjED1Ev@Base 2.2.0
 _ZN5QHashI7QString15QHashDummyValueE11deleteNode2EPN9QHashData4NodeE@Base 2.2.0
 _ZN5QHashI7QString15QHashDummyValueE13detach_helperEv@Base 2.2.0
 _ZN5QHashI7QString15QHashDummyValueE13duplicateNodeEPN9QHashData4NodeEPv@Base 2.2.0
 _ZN5QHashI7QStringN18GLC_ColladaToWorld13MatOffsetSizeEE11deleteNode2EPN9QHashData4NodeE@Base 2.2.0
 _ZN5QHashI7QStringN18GLC_ColladaToWorld13MatOffsetSizeEE13duplicateNodeEPN9QHashData4NodeEPv@Base 2.2.0
 _ZN5QHashI7QStringP12GLC_MaterialE11deleteNode2EPN9QHashData4NodeE@Base 2.2.0
 _ZN5QHashI7QStringP12GLC_MaterialE13detach_helperEv@Base 2.2.0
 _ZN5QHashI7QStringP12GLC_MaterialE13duplicateNodeEPN9QHashData4NodeEPv@Base 2.2.0
 _ZN5QHashI7QStringP12GLC_MaterialE6removeERKS0_@Base 2.2.0
 _ZN5QHashI7QStringP12GLC_MaterialED1Ev@Base 2.2.0
 _ZN5QHashI7QStringPN14GLC_ObjToWorld13MatOffsetSizeEE11deleteNode2EPN9QHashData4NodeE@Base 2.2.0
 _ZN5QHashI7QStringPN14GLC_ObjToWorld13MatOffsetSizeEE13duplicateNodeEPN9QHashData4NodeEPv@Base 2.2.0
 _ZN5QHashI7QStringS0_E11deleteNode2EPN9QHashData4NodeE@Base 2.2.0
 _ZN5QHashI7QStringS0_E13detach_helperEv@Base 2.2.0
 _ZN5QHashI7QStringS0_E13duplicateNodeEPN9QHashData4NodeEPv@Base 2.2.0
 _ZN5QHashI7QStringS0_ED1Ev@Base 2.2.0
 _ZN5QHashI7QStringiE11deleteNode2EPN9QHashData4NodeE@Base 2.2.0
 _ZN5QHashI7QStringiE13duplicateNodeEPN9QHashData4NodeEPv@Base 2.2.0
 _ZN5QHashI7QStringiED1Ev@Base 2.2.0
 _ZN5QHashIK7QString15QHashDummyValueE11deleteNode2EPN9QHashData4NodeE@Base 2.2.0
 _ZN5QHashIK7QString15QHashDummyValueE13detach_helperEv@Base 2.2.0
 _ZN5QHashIK7QString15QHashDummyValueE13duplicateNodeEPN9QHashData4NodeEPv@Base 2.2.0
 _ZN5QHashIK7QString5QListIfEE11deleteNode2EPN9QHashData4NodeE@Base 2.2.0
 _ZN5QHashIK7QString5QListIfEE13detach_helperEv@Base 2.2.0
 _ZN5QHashIK7QString5QListIfEE13duplicateNodeEPN9QHashData4NodeEPv@Base 2.2.0
 _ZN5QHashIK7QString9GLC_3DRepE11deleteNode2EPN9QHashData4NodeE@Base 2.2.0
 _ZN5QHashIK7QString9GLC_3DRepE13duplicateNodeEPN9QHashData4NodeEPv@Base 2.2.0
 _ZN5QHashIK7QStringN18GLC_ColladaToWorld8AccessorEE11deleteNode2EPN9QHashData4NodeE@Base 2.2.0
 _ZN5QHashIK7QStringN18GLC_ColladaToWorld8AccessorEE13detach_helperEv@Base 2.2.0
 _ZN5QHashIK7QStringN18GLC_ColladaToWorld8AccessorEE13duplicateNodeEPN9QHashData4NodeEPv@Base 2.2.0
 _ZN5QHashIK7QStringP12GLC_MaterialE11deleteNode2EPN9QHashData4NodeE@Base 2.2.0
 _ZN5QHashIK7QStringP12GLC_MaterialE13detach_helperEv@Base 2.2.0
 _ZN5QHashIK7QStringP12GLC_MaterialE13duplicateNodeEPN9QHashData4NodeEPv@Base 2.2.0
 _ZN5QHashIK7QStringP12GLC_MaterialE6insertERS1_RKS3_@Base 2.2.0
 _ZN5QHashIK7QStringP12GLC_MaterialED1Ev@Base 2.2.0
 _ZN5QHashIK7QStringP18GLC_StructInstanceE11deleteNode2EPN9QHashData4NodeE@Base 2.2.0
 _ZN5QHashIK7QStringP18GLC_StructInstanceE13detach_helperEv@Base 2.2.0
 _ZN5QHashIK7QStringP18GLC_StructInstanceE13duplicateNodeEPN9QHashData4NodeEPv@Base 2.2.0
 _ZN5QHashIK7QStringP19GLC_StructReferenceE11deleteNode2EPN9QHashData4NodeE@Base 2.2.0
 _ZN5QHashIK7QStringP19GLC_StructReferenceE13detach_helperEv@Base 2.2.0
 _ZN5QHashIK7QStringP19GLC_StructReferenceE13duplicateNodeEPN9QHashData4NodeEPv@Base 2.2.0
 _ZN5QHashIK7QStringP19GLC_StructReferenceED1Ev@Base 2.2.0
 _ZN5QHashIK7QStringP9GLC_3DRepE11deleteNode2EPN9QHashData4NodeE@Base 2.2.0
 _ZN5QHashIK7QStringP9GLC_3DRepE13detach_helperEv@Base 2.2.0
 _ZN5QHashIK7QStringP9GLC_3DRepE13duplicateNodeEPN9QHashData4NodeEPv@Base 2.2.0
 _ZN5QHashIK7QStringPN18GLC_ColladaToWorld11ColladaNodeEE11deleteNode2EPN9QHashData4NodeE@Base 2.2.0
 _ZN5QHashIK7QStringPN18GLC_ColladaToWorld11ColladaNodeEE13detach_helperEv@Base 2.2.0
 _ZN5QHashIK7QStringPN18GLC_ColladaToWorld11ColladaNodeEE13duplicateNodeEPN9QHashData4NodeEPv@Base 2.2.0
 _ZN5QHashIK7QStringPN18GLC_ColladaToWorld8MeshInfoEE11deleteNode2EPN9QHashData4NodeE@Base 2.2.0
 _ZN5QHashIK7QStringPN18GLC_ColladaToWorld8MeshInfoEE13detach_helperEv@Base 2.2.0
 _ZN5QHashIK7QStringPN18GLC_ColladaToWorld8MeshInfoEE13duplicateNodeEPN9QHashData4NodeEPv@Base 2.2.0
 _ZN5QHashIK7QStringS0_E11deleteNode2EPN9QHashData4NodeE@Base 2.2.0
 _ZN5QHashIK7QStringS0_E13detach_helperEv@Base 2.2.0
 _ZN5QHashIK7QStringS0_E13duplicateNodeEPN9QHashData4NodeEPv@Base 2.2.0
 _ZN5QHashIKiP9GLC_MoverE11deleteNode2EPN9QHashData4NodeE@Base 2.2.0
 _ZN5QHashIKiP9GLC_MoverE13detach_helperEv@Base 2.2.0
 _ZN5QHashIKiP9GLC_MoverE13duplicateNodeEPN9QHashData4NodeEPv@Base 2.2.0
 _ZN5QHashIKiP9GLC_MoverE6removeERS0_@Base 2.2.0
 _ZN5QHashIKiP9GLC_MoverED1Ev@Base 2.2.0
 _ZN5QHashIKiPS_IjP18GLC_PrimitiveGroupEE11deleteNode2EPN9QHashData4NodeE@Base 2.2.0
 _ZN5QHashIKiPS_IjP18GLC_PrimitiveGroupEE13detach_helperEv@Base 2.2.0
 _ZN5QHashIKiPS_IjP18GLC_PrimitiveGroupEE13duplicateNodeEPN9QHashData4NodeEPv@Base 2.2.0
 _ZN5QHashIKiPS_IjP18GLC_PrimitiveGroupEED1Ev@Base 2.2.0
 _ZN5QHashIKj7QStringE11deleteNode2EPN9QHashData4NodeE@Base 2.2.0
 _ZN5QHashIKj7QStringE13duplicateNodeEPN9QHashData4NodeEPv@Base 2.2.0
 _ZN5QHashIKj7QStringE6insertERS0_RKS1_@Base 2.2.0
 _ZN5QHashIKj7QStringED1Ev@Base 2.2.0
 _ZN5QHashIKj9GLC_3DRepE11deleteNode2EPN9QHashData4NodeE@Base 2.2.0
 _ZN5QHashIKj9GLC_3DRepE13duplicateNodeEPN9QHashData4NodeEPv@Base 2.2.0
 _ZN5QHashIN14GLC_ObjToWorld10ObjVerticeEjE11deleteNode2EPN9QHashData4NodeE@Base 2.2.0
 _ZN5QHashIN14GLC_ObjToWorld10ObjVerticeEjE13duplicateNodeEPN9QHashData4NodeEPv@Base 2.2.0
 _ZN5QHashIN18GLC_ColladaToWorld14ColladaVerticeEjE11deleteNode2EPN9QHashData4NodeE@Base 2.2.0
 _ZN5QHashIN18GLC_ColladaToWorld14ColladaVerticeEjE13duplicateNodeEPN9QHashData4NodeEPv@Base 2.2.0
 _ZN5QHashIP12GLC_Material15QHashDummyValueE11deleteNode2EPN9QHashData4NodeE@Base 2.2.0
 _ZN5QHashIP12GLC_Material15QHashDummyValueE13detach_helperEv@Base 2.2.0
 _ZN5QHashIP12GLC_Material15QHashDummyValueE13duplicateNodeEPN9QHashData4NodeEPv@Base 2.2.0
 _ZN5QHashIP12GLC_MaterialiE11deleteNode2EPN9QHashData4NodeE@Base 2.2.0
 _ZN5QHashIP12GLC_MaterialiE13detach_helperEv@Base 2.2.0
 _ZN5QHashIP12GLC_MaterialiE13duplicateNodeEPN9QHashData4NodeEPv@Base 2.2.0
 _ZN5QHashIP12GLC_MaterialiED1Ev@Base 2.2.0
 _ZN5QHashIP18GLC_3DViewInstance15QHashDummyValueE11deleteNode2EPN9QHashData4NodeE@Base 2.2.0
 _ZN5QHashIP18GLC_3DViewInstance15QHashDummyValueE13detach_helperEv@Base 2.2.0
 _ZN5QHashIP18GLC_3DViewInstance15QHashDummyValueE13duplicateNodeEPN9QHashData4NodeEPv@Base 2.2.0
 _ZN5QHashIP18GLC_StructInstance15QHashDummyValueE11deleteNode2EPN9QHashData4NodeE@Base 2.2.0
 _ZN5QHashIP18GLC_StructInstance15QHashDummyValueE13detach_helperEv@Base 2.2.0
 _ZN5QHashIP18GLC_StructInstance15QHashDummyValueE13duplicateNodeEPN9QHashData4NodeEPv@Base 2.2.0
 _ZN5QHashIP18GLC_StructInstance15QHashDummyValueE6removeERKS1_@Base 2.2.0
 _ZN5QHashIP18GLC_StructInstance7QStringE11deleteNode2EPN9QHashData4NodeE@Base 2.2.0
 _ZN5QHashIP18GLC_StructInstance7QStringE13detach_helperEv@Base 2.2.0
 _ZN5QHashIP18GLC_StructInstance7QStringE13duplicateNodeEPN9QHashData4NodeEPv@Base 2.2.0
 _ZN5QHashIP18GLC_StructInstance7QStringED1Ev@Base 2.2.0
 _ZN5QHashIP18GLC_StructInstancejE11deleteNode2EPN9QHashData4NodeE@Base 2.2.0
 _ZN5QHashIP18GLC_StructInstancejE13detach_helperEv@Base 2.2.0
 _ZN5QHashIP18GLC_StructInstancejE13duplicateNodeEPN9QHashData4NodeEPv@Base 2.2.0
 _ZN5QHashIP18GLC_StructInstancejE6insertERKS1_RKj@Base 2.2.0
 _ZN5QHashIP18GLC_StructInstancejED1Ev@Base 2.2.0
 _ZN5QHashIP19GLC_StructOccurence15QHashDummyValueE11deleteNode2EPN9QHashData4NodeE@Base 2.2.0
 _ZN5QHashIP19GLC_StructOccurence15QHashDummyValueE13duplicateNodeEPN9QHashData4NodeEPv@Base 2.2.0
 _ZN5QHashIP19GLC_StructReference15QHashDummyValueE11deleteNode2EPN9QHashData4NodeE@Base 2.2.0
 _ZN5QHashIP19GLC_StructReference15QHashDummyValueE13duplicateNodeEPN9QHashData4NodeEPv@Base 2.2.0
 _ZN5QHashIP19GLC_StructReference15QHashDummyValueE6removeERKS1_@Base 2.2.0
 _ZN5QHashIPK10QGLContext4QSetIjEE11deleteNode2EPN9QHashData4NodeE@Base 2.2.0
 _ZN5QHashIPK10QGLContext4QSetIjEE13duplicateNodeEPN9QHashData4NodeEPv@Base 2.2.0
 _ZN5QHashIPK10QGLContext4QSetIjEED1Ev@Base 2.2.0
 _ZN5QHashIPK10QGLContextP10GLC_ShaderE11deleteNode2EPN9QHashData4NodeE@Base 2.2.0
 _ZN5QHashIPK10QGLContextP10GLC_ShaderE13duplicateNodeEPN9QHashData4NodeEPv@Base 2.2.0
 _ZN5QHashIPK10QGLContextP10GLC_ShaderED1Ev@Base 2.2.0
 _ZN5QHashIPK18GLC_StructInstancejE11deleteNode2EPN9QHashData4NodeE@Base 2.2.0
 _ZN5QHashIPK18GLC_StructInstancejE13detach_helperEv@Base 2.2.0
 _ZN5QHashIPK18GLC_StructInstancejE13duplicateNodeEPN9QHashData4NodeEPv@Base 2.2.0
 _ZN5QHashIPK18GLC_StructInstancejED1Ev@Base 2.2.0
 _ZN5QHashIPK19GLC_StructReferencejE11deleteNode2EPN9QHashData4NodeE@Base 2.2.0
 _ZN5QHashIPK19GLC_StructReferencejE13detach_helperEv@Base 2.2.0
 _ZN5QHashIPK19GLC_StructReferencejE13duplicateNodeEPN9QHashData4NodeEPv@Base 2.2.0
 _ZN5QHashIPK19GLC_StructReferencejED1Ev@Base 2.2.0
 _ZN5QHashIPK9GLC_3DRep7QStringE11deleteNode2EPN9QHashData4NodeE@Base 2.2.0
 _ZN5QHashIPK9GLC_3DRep7QStringE13detach_helperEv@Base 2.2.0
 _ZN5QHashIPK9GLC_3DRep7QStringE13duplicateNodeEPN9QHashData4NodeEPv@Base 2.2.0
 _ZN5QHashIPK9GLC_3DRep7QStringED1Ev@Base 2.2.0
 _ZN5QHashIPK9GLC_3DRepjE11deleteNode2EPN9QHashData4NodeE@Base 2.2.0
 _ZN5QHashIPK9GLC_3DRepjE13detach_helperEv@Base 2.2.0
 _ZN5QHashIPK9GLC_3DRepjE13duplicateNodeEPN9QHashData4NodeEPv@Base 2.2.0
 _ZN5QHashIPK9GLC_3DRepjED1Ev@Base 2.2.0
 _ZN5QHashIiP4QSetIjEE11deleteNode2EPN9QHashData4NodeE@Base 2.2.0
 _ZN5QHashIiP4QSetIjEE13duplicateNodeEPN9QHashData4NodeEPv@Base 2.2.0
 _ZN5QHashIiP4QSetIjEE6insertERKiRKS2_@Base 2.2.0
 _ZN5QHashIiPS_IjP12GLC_MaterialEE11deleteNode2EPN9QHashData4NodeE@Base 2.2.0
 _ZN5QHashIiPS_IjP12GLC_MaterialEE13duplicateNodeEPN9QHashData4NodeEPv@Base 2.2.0
 _ZN5QHashIiiE11deleteNode2EPN9QHashData4NodeE@Base 2.2.0
 _ZN5QHashIiiE13duplicateNodeEPN9QHashData4NodeEPv@Base 2.2.0
 _ZN5QHashIj15QHashDummyValueE11deleteNode2EPN9QHashData4NodeE@Base 2.2.0
 _ZN5QHashIj15QHashDummyValueE13detach_helperEv@Base 2.2.0
 _ZN5QHashIj15QHashDummyValueE13duplicateNodeEPN9QHashData4NodeEPv@Base 2.2.0
 _ZN5QHashIj18GLC_3DViewInstanceE10createNodeEjRKjRKS0_PP9QHashNodeIjS0_E@Base 2.2.0
 _ZN5QHashIj18GLC_3DViewInstanceE11deleteNode2EPN9QHashData4NodeE@Base 2.2.0
 _ZN5QHashIj18GLC_3DViewInstanceE13detach_helperEv@Base 2.2.0
 _ZN5QHashIj18GLC_3DViewInstanceE13duplicateNodeEPN9QHashData4NodeEPv@Base 2.2.0
 _ZN5QHashIj18GLC_3DViewInstanceEixERKj@Base 2.2.0
 _ZN5QHashIj4QSetIjEE11deleteNode2EPN9QHashData4NodeE@Base 2.2.0
 _ZN5QHashIj4QSetIjEE13detach_helperEv@Base 2.2.0
 _ZN5QHashIj4QSetIjEE13duplicateNodeEPN9QHashData4NodeEPv@Base 2.2.0
 _ZN5QHashIj7QStringE11deleteNode2EPN9QHashData4NodeE@Base 2.2.0
 _ZN5QHashIj7QStringE13detach_helperEv@Base 2.2.0
 _ZN5QHashIj7QStringE13duplicateNodeEPN9QHashData4NodeEPv@Base 2.2.0
 _ZN5QHashIj7QStringED1Ev@Base 2.2.0
 _ZN5QHashIjP10GLC_ShaderE11deleteNode2EPN9QHashData4NodeE@Base 2.2.0
 _ZN5QHashIjP10GLC_ShaderE13duplicateNodeEPN9QHashData4NodeEPv@Base 2.2.0
 _ZN5QHashIjP10GLC_ShaderED1Ev@Base 2.2.0
 _ZN5QHashIjP12GLC_3DWidgetE11deleteNode2EPN9QHashData4NodeE@Base 2.2.0
 _ZN5QHashIjP12GLC_3DWidgetE13detach_helperEv@Base 2.2.0
 _ZN5QHashIjP12GLC_3DWidgetE13duplicateNodeEPN9QHashData4NodeEPv@Base 2.2.0
 _ZN5QHashIjP12GLC_3DWidgetE4takeERKj@Base 2.2.0
 _ZN5QHashIjP12GLC_GeometryE11deleteNode2EPN9QHashData4NodeE@Base 2.2.0
 _ZN5QHashIjP12GLC_GeometryE13duplicateNodeEPN9QHashData4NodeEPv@Base 2.2.0
 _ZN5QHashIjP12GLC_GeometryED1Ev@Base 2.2.0
 _ZN5QHashIjP12GLC_MaterialE11deleteNode2EPN9QHashData4NodeE@Base 2.2.0
 _ZN5QHashIjP12GLC_MaterialE13detach_helperEv@Base 2.2.0
 _ZN5QHashIjP12GLC_MaterialE13duplicateNodeEPN9QHashData4NodeEPv@Base 2.2.0
 _ZN5QHashIjP12GLC_MaterialE6insertERKjRKS1_@Base 2.2.0
 _ZN5QHashIjP12GLC_MaterialE6removeERKj@Base 2.2.0
 _ZN5QHashIjP12GLC_MaterialED1Ev@Base 2.2.0
 _ZN5QHashIjP18GLC_3DViewInstanceE11deleteNode2EPN9QHashData4NodeE@Base 2.2.0
 _ZN5QHashIjP18GLC_3DViewInstanceE13detach_helperEv@Base 2.2.0
 _ZN5QHashIjP18GLC_3DViewInstanceE13duplicateNodeEPN9QHashData4NodeEPv@Base 2.2.0
 _ZN5QHashIjP18GLC_3DViewInstanceE4takeERKj@Base 2.2.0
 _ZN5QHashIjP18GLC_3DViewInstanceE6insertERKjRKS1_@Base 2.2.0
 _ZN5QHashIjP18GLC_3DViewInstanceE6removeERKj@Base 2.2.0
 _ZN5QHashIjP18GLC_3DViewInstanceED1Ev@Base 2.2.0
 _ZN5QHashIjP18GLC_PrimitiveGroupE11deleteNode2EPN9QHashData4NodeE@Base 2.2.0
 _ZN5QHashIjP18GLC_PrimitiveGroupE13duplicateNodeEPN9QHashData4NodeEPv@Base 2.2.0
 _ZN5QHashIjP18GLC_PrimitiveGroupE6insertERKjRKS1_@Base 2.2.0
 _ZN5QHashIjP19GLC_StructOccurenceE11deleteNode2EPN9QHashData4NodeE@Base 2.2.0
 _ZN5QHashIjP19GLC_StructOccurenceE13detach_helperEv@Base 2.2.0
 _ZN5QHashIjP19GLC_StructOccurenceE13duplicateNodeEPN9QHashData4NodeEPv@Base 2.2.0
 _ZN5QHashIjP19GLC_StructOccurenceE6removeERKj@Base 2.2.0
 _ZN5QHashIjP19GLC_StructReferenceE11deleteNode2EPN9QHashData4NodeE@Base 2.2.0
 _ZN5QHashIjP19GLC_StructReferenceE13detach_helperEv@Base 2.2.0
 _ZN5QHashIjP19GLC_StructReferenceE13duplicateNodeEPN9QHashData4NodeEPv@Base 2.2.0
 _ZN5QHashIjP19GLC_StructReferenceED1Ev@Base 2.2.0
 _ZN5QHashIjP9GLC_PlaneE11deleteNode2EPN9QHashData4NodeE@Base 2.2.0
 _ZN5QHashIjP9GLC_PlaneE13duplicateNodeEPN9QHashData4NodeEPv@Base 2.2.0
 _ZN5QHashIjP9GLC_PlaneE6removeERKj@Base 2.2.0
 _ZN5QHashIjP9GLC_PlaneED1Ev@Base 2.2.0
 _ZN5QHashIjPN16GLC_3dxmlToWorld15OccurenceAttribEE11deleteNode2EPN9QHashData4NodeE@Base 2.2.0
 _ZN5QHashIjPN16GLC_3dxmlToWorld15OccurenceAttribEE13detach_helperEv@Base 2.2.0
 _ZN5QHashIjPN16GLC_3dxmlToWorld15OccurenceAttribEE13duplicateNodeEPN9QHashData4NodeEPv@Base 2.2.0
 _ZN5QHashIjPN16GLC_3dxmlToWorld15OccurenceAttribEED1Ev@Base 2.2.0
 _ZN5QHashIjPS_IjP18GLC_3DViewInstanceEE11deleteNode2EPN9QHashData4NodeE@Base 2.2.0
 _ZN5QHashIjPS_IjP18GLC_3DViewInstanceEE13detach_helperEv@Base 2.2.0
 _ZN5QHashIjPS_IjP18GLC_3DViewInstanceEE13duplicateNodeEPN9QHashData4NodeEPv@Base 2.2.0
 _ZN5QHashIjiE11deleteNode2EPN9QHashData4NodeE@Base 2.2.0
 _ZN5QHashIjiE13duplicateNodeEPN9QHashData4NodeEPv@Base 2.2.0
 _ZN5QHashIjiED1Ev@Base 2.2.0
 _ZN5QHashIjjE11deleteNode2EPN9QHashData4NodeE@Base 2.2.0
 _ZN5QHashIjjE13detach_helperEv@Base 2.2.0
 _ZN5QHashIjjE13duplicateNodeEPN9QHashData4NodeEPv@Base 2.2.0
 _ZN5QHashIjjE6removeERKj@Base 2.2.0
 _ZN5QHashIjjED1Ev@Base 2.2.0
 _ZN5QListI10QByteArrayE13detach_helperEv@Base 2.2.0
 _ZN5QListI10QByteArrayE4freeEPN9QListData4DataE@Base 2.2.0
 _ZN5QListI10QByteArrayE5clearEv@Base 2.2.0
 _ZN5QListI10QByteArrayED1Ev@Base 2.2.0
 _ZN5QListI12GLC_MaterialE13detach_helperEv@Base 2.2.0
 _ZN5QListI12GLC_MaterialE4freeEPN9QListData4DataE@Base 2.2.0
 _ZN5QListI12GLC_MaterialE6appendERKS0_@Base 2.2.0
 _ZN5QListI12GLC_MaterialED1Ev@Base 2.2.0
 _ZN5QListI12GLC_Vector2dE13detach_helperEv@Base 2.2.0
 _ZN5QListI12GLC_Vector2dE4freeEPN9QListData4DataE@Base 2.2.0
 _ZN5QListI12GLC_Vector2dE6appendERKS0_@Base 2.2.0
 _ZN5QListI12GLC_Vector3dE13detach_helperEv@Base 2.2.0
 _ZN5QListI12GLC_Vector3dE4freeEPN9QListData4DataE@Base 2.2.0
 _ZN5QListI12GLC_Vector3dE6appendERKS0_@Base 2.2.0
 _ZN5QListI12GLC_Vector3dED1Ev@Base 2.2.0
 _ZN5QListI18GLC_PrimitiveGroupE13detach_helperEv@Base 2.2.0
 _ZN5QListI18GLC_PrimitiveGroupE4freeEPN9QListData4DataE@Base 2.2.0
 _ZN5QListI18GLC_PrimitiveGroupE6appendERKS0_@Base 2.2.0
 _ZN5QListI18GLC_PrimitiveGroupED1Ev@Base 2.2.0
 _ZN5QListI7GLC_LodE13detach_helperEv@Base 2.2.0
 _ZN5QListI7GLC_LodE4freeEPN9QListData4DataE@Base 2.2.0
 _ZN5QListI7GLC_LodE6appendERKS0_@Base 2.2.0
 _ZN5QListI7GLC_LodED1Ev@Base 2.2.0
 _ZN5QListI7QStringE13detach_helperEv@Base 2.2.0
 _ZN5QListI7QStringE4freeEPN9QListData4DataE@Base 2.2.0
 _ZN5QListI7QStringE5clearEv@Base 2.2.0
 _ZN5QListI7QStringE6appendERKS0_@Base 2.2.0
 _ZN5QListI7QStringED1Ev@Base 2.2.0
 _ZN5QListI7QVectorIjEE13detach_helperEv@Base 2.2.0
 _ZN5QListI7QVectorIjEE4freeEPN9QListData4DataE@Base 2.2.0
 _ZN5QListI7QVectorIjEE6appendERKS1_@Base 2.2.0
 _ZN5QListI7QVectorIjEED1Ev@Base 2.2.0
 _ZN5QListI9GLC_PlaneE13detach_helperEv@Base 2.2.0
 _ZN5QListI9GLC_PlaneE4freeEPN9QListData4DataE@Base 2.2.0
 _ZN5QListI9GLC_PlaneE6appendERKS0_@Base 2.2.0
 _ZN5QListI9GLC_PlaneED1Ev@Base 2.2.0
 _ZN5QListIN16GLC_3dxmlToWorld11MaterialRefEE13detach_helperEv@Base 2.2.0
 _ZN5QListIN16GLC_3dxmlToWorld11MaterialRefEE4freeEPN9QListData4DataE@Base 2.2.0
 _ZN5QListIN16GLC_3dxmlToWorld11MaterialRefEE6appendERKS1_@Base 2.2.0
 _ZN5QListIN16GLC_3dxmlToWorld7RepLinkEE13detach_helperEv@Base 2.2.0
 _ZN5QListIN16GLC_3dxmlToWorld7RepLinkEE4freeEPN9QListData4DataE@Base 2.2.0
 _ZN5QListIN16GLC_3dxmlToWorld7RepLinkEE6appendERKS1_@Base 2.2.0
 _ZN5QListIN16GLC_3dxmlToWorld7RepLinkEED1Ev@Base 2.2.0
 _ZN5QListIN16GLC_3dxmlToWorld8AssyLinkEE13detach_helperEv@Base 2.2.0
 _ZN5QListIN16GLC_3dxmlToWorld8AssyLinkEE4freeEPN9QListData4DataE@Base 2.2.0
 _ZN5QListIN16GLC_3dxmlToWorld8AssyLinkEE6appendERKS1_@Base 2.2.0
 _ZN5QListIN16GLC_3dxmlToWorld8AssyLinkEED1Ev@Base 2.2.0
 _ZN5QListIN18GLC_ColladaToWorld9InputDataEE13detach_helperEv@Base 2.2.0
 _ZN5QListIN18GLC_ColladaToWorld9InputDataEE4freeEPN9QListData4DataE@Base 2.2.0
 _ZN5QListIN18GLC_ColladaToWorld9InputDataEE6appendERKS1_@Base 2.2.0
 _ZN5QListIN18GLC_ColladaToWorld9InputDataEED1Ev@Base 2.2.0
 _ZN5QListIP12GLC_GeometryE13detach_helperEv@Base 2.2.0
 _ZN5QListIP12GLC_GeometryE5clearEv@Base 2.2.0
 _ZN5QListIP12GLC_GeometryE6appendERKS1_@Base 2.2.0
 _ZN5QListIP12GLC_GeometryED1Ev@Base 2.2.0
 _ZN5QListIP12GLC_MaterialE6appendERKS1_@Base 2.2.0
 _ZN5QListIP12GLC_MaterialED1Ev@Base 2.2.0
 _ZN5QListIP12GLC_RepMoverE13detach_helperEv@Base 2.2.0
 _ZN5QListIP12GLC_RepMoverE5clearEv@Base 2.2.0
 _ZN5QListIP12GLC_RepMoverE6appendERKS1_@Base 2.2.0
 _ZN5QListIP12GLC_RepMoverED1Ev@Base 2.2.0
 _ZN5QListIP14GLC_OctreeNodeE6appendERKS1_@Base 2.2.0
 _ZN5QListIP14GLC_OctreeNodeED1Ev@Base 2.2.0
 _ZN5QListIP18GLC_3DViewInstanceE6appendERKS1_@Base 2.2.0
 _ZN5QListIP18GLC_3DViewInstanceED1Ev@Base 2.2.0
 _ZN5QListIP18GLC_StructInstanceE6appendERKS1_@Base 2.2.0
 _ZN5QListIP18GLC_StructInstanceED1Ev@Base 2.2.0
 _ZN5QListIP19GLC_StructOccurenceE13detach_helperEv@Base 2.2.0
 _ZN5QListIP19GLC_StructOccurenceE6appendERKS1_@Base 2.2.0
 _ZN5QListIP19GLC_StructOccurenceE9removeOneERKS1_@Base 2.2.0
 _ZN5QListIP19GLC_StructOccurenceED1Ev@Base 2.2.0
 _ZN5QListIP19GLC_StructOccurenceEpLERKS2_@Base 2.2.0
 _ZN5QListIP19GLC_StructReferenceE6appendERKS1_@Base 2.2.0
 _ZN5QListIP19GLC_StructReferenceED1Ev@Base 2.2.0
 _ZN5QListIP21GLC_WorldReaderPluginE13detach_helperEv@Base 2.2.0
 _ZN5QListIP21GLC_WorldReaderPluginED1Ev@Base 2.2.0
 _ZN5QListIP5QHashIjP12GLC_MaterialEE6appendERKS4_@Base 2.2.0
 _ZN5QListIP5QHashIjP12GLC_MaterialEED1Ev@Base 2.2.0
 _ZN5QListIP7GLC_LodE13detach_helperEv@Base 2.2.0
 _ZN5QListIP7GLC_LodE6appendERKS1_@Base 2.2.0
 _ZN5QListIP7GLC_LodED1Ev@Base 2.2.0
 _ZN5QListIPK19GLC_StructOccurenceE13detach_helperEv@Base 2.2.0
 _ZN5QListIPK19GLC_StructOccurenceE5clearEv@Base 2.2.0
 _ZN5QListIPK19GLC_StructOccurenceED1Ev@Base 2.2.0
 _ZN5QListIPN18GLC_ColladaToWorld11ColladaNodeEE13detach_helperEv@Base 2.2.0
 _ZN5QListIPN18GLC_ColladaToWorld11ColladaNodeEE6appendERKS2_@Base 2.2.0
 _ZN5QListIPN18GLC_ColladaToWorld11ColladaNodeEED1Ev@Base 2.2.0
 _ZN5QListIS_I18GLC_PrimitiveGroupEE13detach_helperEv@Base 2.2.0
 _ZN5QListIS_I18GLC_PrimitiveGroupEE4freeEPN9QListData4DataE@Base 2.2.0
 _ZN5QListIS_I18GLC_PrimitiveGroupEE6appendERKS1_@Base 2.2.0
 _ZN5QListIS_I18GLC_PrimitiveGroupEED1Ev@Base 2.2.0
 _ZN5QListIfE13detach_helperEv@Base 2.2.0
 _ZN5QListIfE5clearEv@Base 2.2.0
 _ZN5QListIfE6appendERKf@Base 2.2.0
 _ZN5QListIfED1Ev@Base 2.2.0
 _ZN5QListIfEpLERKS0_@Base 2.2.0
 _ZN5QListIiE13detach_helperEv@Base 2.2.0
 _ZN5QListIiE6appendERKi@Base 2.2.0
 _ZN5QListIiED1Ev@Base 2.2.0
 _ZN5QListIjE13detach_helperEv@Base 2.2.0
 _ZN5QListIjE5clearEv@Base 2.2.0
 _ZN5QListIjE6appendERKj@Base 2.2.0
 _ZN5QListIjED1Ev@Base 2.2.0
 _ZN5QListIjEpLERKS0_@Base 2.2.0
 _ZN6QDebugD1Ev@Base 2.2.0
 _ZN6QDebuglsEPKc@Base 2.2.0
 _ZN6QDebuglsERK7QString@Base 2.2.0
 _ZN6QStackIjED1Ev@Base 2.2.0
 _ZN6QuaZip10setZipNameERK7QString@Base 2.2.0
 _ZN6QuaZip12goToNextFileEv@Base 2.2.0
 _ZN6QuaZip13goToFirstFileEv@Base 2.2.0
 _ZN6QuaZip14setCurrentFileERK7QStringNS_15CaseSensitivityE@Base 2.2.0
 _ZN6QuaZip4openENS_4ModeEP19zlib_filefunc_def_s@Base 2.2.0
 _ZN6QuaZip5closeEv@Base 2.2.0
 _ZN6QuaZipC1ERK7QString@Base 2.2.0
 _ZN6QuaZipC1Ev@Base 2.2.0
 _ZN6QuaZipC2ERK7QString@Base 2.2.0
 _ZN6QuaZipC2Ev@Base 2.2.0
 _ZN6QuaZipD1Ev@Base 2.2.0
 _ZN6QuaZipD2Ev@Base 2.2.0
 _ZN7GLC_Box10createWireEv@Base 2.2.0
 _ZN7GLC_Box11boundingBoxEv@Base 2.2.0
 _ZN7GLC_Box17createMeshAndWireEv@Base 2.2.0
 _ZN7GLC_Box6glDrawERK20GLC_RenderProperties@Base 2.2.0
 _ZN7GLC_Box6setLgXEd@Base 2.2.0
 _ZN7GLC_Box6setLgYEd@Base 2.2.0
 _ZN7GLC_Box6setLgZEd@Base 2.2.0
 _ZN7GLC_BoxC1ERKS_@Base 2.2.0
 _ZN7GLC_BoxC1Eddd@Base 2.2.0
 _ZN7GLC_BoxC2ERKS_@Base 2.2.0
 _ZN7GLC_BoxC2Eddd@Base 2.2.0
 _ZN7GLC_BoxD0Ev@Base 2.2.0
 _ZN7GLC_BoxD1Ev@Base 2.2.0
 _ZN7GLC_BoxD2Ev@Base 2.2.0
 _ZN7GLC_Lod19copyIboToClientSideEv@Base 2.2.0
 _ZN7GLC_Lod20releaseIboClientSideEb@Base 2.2.0
 _ZN7GLC_Lod8chunckIDEv@Base 2.2.0
 _ZN7GLC_Lod9m_ChunkIdE@Base 2.2.0
 _ZN7GLC_LodC1ERKS_@Base 2.2.0
 _ZN7GLC_LodC1Ed@Base 2.2.0
 _ZN7GLC_LodC1Ev@Base 2.2.0
 _ZN7GLC_LodC2ERKS_@Base 2.2.0
 _ZN7GLC_LodC2Ed@Base 2.2.0
 _ZN7GLC_LodC2Ev@Base 2.2.0
 _ZN7GLC_LodD0Ev@Base 2.2.0
 _ZN7GLC_LodD1Ev@Base 2.2.0
 _ZN7GLC_LodD2Ev@Base 2.2.0
 _ZN7GLC_LodaSERKS_@Base 2.2.0
 _ZN7GLC_Log12addSeparatorEv@Base 2.2.0
 _ZN7GLC_Log14addCurrentTimeEv@Base 2.2.0
 _ZN7GLC_Log3addERK7QString@Base 2.2.0
 _ZN7GLC_LogC1ERK7QString@Base 2.2.0
 _ZN7GLC_LogC2ERK7QString@Base 2.2.0
 _ZN7GLC_LogD0Ev@Base 2.2.0
 _ZN7GLC_LogD1Ev@Base 2.2.0
 _ZN7GLC_LogD2Ev@Base 2.2.0
 _ZN7GLC_Rep5clearEv@Base 2.2.0
 _ZN7GLC_RepC1ERKS_@Base 2.2.0
 _ZN7GLC_RepC1Ev@Base 2.2.0
 _ZN7GLC_RepC2ERKS_@Base 2.2.0
 _ZN7GLC_RepC2Ev@Base 2.2.0
 _ZN7GLC_RepD0Ev@Base 2.2.0
 _ZN7GLC_RepD1Ev@Base 2.2.0
 _ZN7GLC_RepD2Ev@Base 2.2.0
 _ZN7GLC_RepaSERKS_@Base 2.2.0
 _ZN7QString6appendEPKc@Base 2.2.0
 _ZN7QStringC1EPKc@Base 2.2.0
 _ZN7QStringD1Ev@Base 2.2.0
 _ZN7QStringaSEPKc@Base 2.2.0
 _ZN7QVectorI12GLC_Vector2dE6appendERKS0_@Base 2.2.0
 _ZN7QVectorI12GLC_Vector2dE7reallocEii@Base 2.2.0
 _ZN7QVectorI12GLC_Vector3dE4freeEP16QVectorTypedDataIS0_E@Base 2.2.0
 _ZN7QVectorI12GLC_Vector3dE6appendERKS0_@Base 2.2.0
 _ZN7QVectorI12GLC_Vector3dE7reallocEii@Base 2.2.0
 _ZN7QVectorI13GLC_Matrix4x4E4freeEP16QVectorTypedDataIS0_E@Base 2.2.0
 _ZN7QVectorI13GLC_Matrix4x4E6appendERKS0_@Base 2.2.0
 _ZN7QVectorI13GLC_Matrix4x4E7reallocEii@Base 2.2.0
 _ZN7QVectorI5QListIfEE4freeEP16QVectorTypedDataIS1_E@Base 2.2.0
 _ZN7QVectorI5QListIfEE7reallocEii@Base 2.2.0
 _ZN7QVectorI7QStringE4freeEP16QVectorTypedDataIS0_E@Base 2.2.0
 _ZN7QVectorI7QStringE7reallocEii@Base 2.2.0
 _ZN7QVectorIPvE6appendERKS0_@Base 2.2.0
 _ZN7QVectorIPvE7reallocEii@Base 2.2.0
 _ZN7QVectorIPvED1Ev@Base 2.2.0
 _ZN7QVectorIPvEaSERKS1_@Base 2.2.0
 _ZN7QVectorIbE7reallocEii@Base 2.2.0
 _ZN7QVectorIbED1Ev@Base 2.2.0
 _ZN7QVectorIdE6appendERKd@Base 2.2.0
 _ZN7QVectorIdE7reallocEii@Base 2.2.0
 _ZN7QVectorIdED1Ev@Base 2.2.0
 _ZN7QVectorIfE6appendERKf@Base 2.2.0
 _ZN7QVectorIfE6resizeEi@Base 2.2.0
 _ZN7QVectorIfE7reallocEii@Base 2.2.0
 _ZN7QVectorIfEC1Ei@Base 2.2.0
 _ZN7QVectorIfED1Ev@Base 2.2.0
 _ZN7QVectorIfEaSERKS0_@Base 2.2.0
 _ZN7QVectorIfElsERKf@Base 2.2.0
 _ZN7QVectorIfEpLERKS0_@Base 2.2.0
 _ZN7QVectorIhE7reallocEii@Base 2.2.0
 _ZN7QVectorIhEC1Ei@Base 2.2.0
 _ZN7QVectorIiE6appendERKi@Base 2.2.0
 _ZN7QVectorIiE7reallocEii@Base 2.2.0
 _ZN7QVectorIiED1Ev@Base 2.2.0
 _ZN7QVectorIiEaSERKS0_@Base 2.2.0
 _ZN7QVectorIjE6appendERKj@Base 2.2.0
 _ZN7QVectorIjE7reallocEii@Base 2.2.0
 _ZN7QVectorIjEC1Ei@Base 2.2.0
 _ZN7QVectorIjED1Ev@Base 2.2.0
 _ZN7QVectorIjEaSERKS0_@Base 2.2.0
 _ZN7QVectorIjEpLERKS0_@Base 2.2.0
 _ZN8GLC_Axis12mousePressedERK12GLC_Vector3dN2Qt11MouseButtonEj@Base 2.2.0
 _ZN8GLC_Axis13mouseReleasedEN2Qt11MouseButtonE@Base 2.2.0
 _ZN8GLC_Axis13setAxisLengthEd@Base 2.2.0
 _ZN8GLC_Axis14resetViewStateEv@Base 2.2.0
 _ZN8GLC_Axis15updateWidgetRepEv@Base 2.2.0
 _ZN8GLC_Axis18moveManipulatorRepERK12GLC_Vector3d@Base 2.2.0
 _ZN8GLC_Axis20create3DviewInstanceEv@Base 2.2.0
 _ZN8GLC_Axis6selectERK12GLC_Vector3dj@Base 2.2.0
 _ZN8GLC_Axis8unselectERK12GLC_Vector3dj@Base 2.2.0
 _ZN8GLC_Axis9mouseMoveERK12GLC_Vector3d6QFlagsIN2Qt11MouseButtonEEj@Base 2.2.0
 _ZN8GLC_Axis9setCenterERK12GLC_Vector3d@Base 2.2.0
 _ZN8GLC_AxisC1ERK12GLC_Vector3dP25GLC_3DWidgetManagerHandle@Base 2.2.0
 _ZN8GLC_AxisC1ERKS_@Base 2.2.0
 _ZN8GLC_AxisC2ERK12GLC_Vector3dP25GLC_3DWidgetManagerHandle@Base 2.2.0
 _ZN8GLC_AxisC2ERKS_@Base 2.2.0
 _ZN8GLC_AxisD0Ev@Base 2.2.0
 _ZN8GLC_AxisD1Ev@Base 2.2.0
 _ZN8GLC_AxisD2Ev@Base 2.2.0
 _ZN8GLC_AxisaSERKS_@Base 2.2.0
 _ZN8GLC_Cone11boundingBoxEv@Base 2.2.0
 _ZN8GLC_Cone13setDiscretionEi@Base 2.2.0
 _ZN8GLC_Cone17createMeshAndWireEv@Base 2.2.0
 _ZN8GLC_Cone6glDrawERK20GLC_RenderProperties@Base 2.2.0
 _ZN8GLC_Cone8chunckIDEv@Base 2.2.0
 _ZN8GLC_Cone9m_ChunkIdE@Base 2.2.0
 _ZN8GLC_Cone9setLengthEd@Base 2.2.0
 _ZN8GLC_Cone9setRadiusEd@Base 2.2.0
 _ZN8GLC_ConeC1ERKS_@Base 2.2.0
 _ZN8GLC_ConeC1Edd@Base 2.2.0
 _ZN8GLC_ConeC2ERKS_@Base 2.2.0
 _ZN8GLC_ConeC2Edd@Base 2.2.0
 _ZN8GLC_ConeD0Ev@Base 2.2.0
 _ZN8GLC_ConeD1Ev@Base 2.2.0
 _ZN8GLC_ConeD2Ev@Base 2.2.0
 _ZN8GLC_Disc11boundingBoxEv@Base 2.2.0
 _ZN8GLC_Disc13setDiscretionEi@Base 2.2.0
 _ZN8GLC_Disc17createMeshAndWireEv@Base 2.2.0
 _ZN8GLC_Disc6glDrawERK20GLC_RenderProperties@Base 2.2.0
 _ZN8GLC_Disc8setAngleEd@Base 2.2.0
 _ZN8GLC_Disc9setRadiusEd@Base 2.2.0
 _ZN8GLC_DiscC1ERKS_@Base 2.2.0
 _ZN8GLC_DiscC1Edd@Base 2.2.0
 _ZN8GLC_DiscC2ERKS_@Base 2.2.0
 _ZN8GLC_DiscC2Edd@Base 2.2.0
 _ZN8GLC_DiscD0Ev@Base 2.2.0
 _ZN8GLC_DiscD1Ev@Base 2.2.0
 _ZN8GLC_DiscD2Ev@Base 2.2.0
 _ZN8GLC_DiscaSERKS_@Base 2.2.0
 _ZN8GLC_Line11boundingBoxEv@Base 2.2.0
 _ZN8GLC_Line6glDrawERK20GLC_RenderProperties@Base 2.2.0
 _ZN8GLC_LineC1ERK12GLC_Vector3dS2_@Base 2.2.0
 _ZN8GLC_LineC1ERKS_@Base 2.2.0
 _ZN8GLC_LineC2ERK12GLC_Vector3dS2_@Base 2.2.0
 _ZN8GLC_LineC2ERKS_@Base 2.2.0
 _ZN8GLC_LineD0Ev@Base 2.2.0
 _ZN8GLC_LineD1Ev@Base 2.2.0
 _ZN8GLC_LineD2Ev@Base 2.2.0
 _ZN8GLC_Mesh11boundingBoxEv@Base 2.2.0
 _ZN8GLC_Mesh12addTrianglesEP12GLC_MaterialRK5QListIjEid@Base 2.2.0
 _ZN8GLC_Mesh12copyBulkDataEPS_RK5QHashIjjEi@Base 2.2.0
 _ZN8GLC_Mesh12finishNonVboEv@Base 2.2.0
 _ZN8GLC_Mesh13setCurrentLodEi@Base 2.2.0
 _ZN8GLC_Mesh14reverseNormalsEv@Base 2.2.0
 _ZN8GLC_Mesh15addTrianglesFanEP12GLC_MaterialRK5QListIjEid@Base 2.2.0
 _ZN8GLC_Mesh15fillVbosAndIbosEv@Base 2.2.0
 _ZN8GLC_Mesh15replaceMaterialEjP12GLC_Material@Base 2.2.0
 _ZN8GLC_Mesh16finishSerializedEv@Base 2.2.0
 _ZN8GLC_Mesh16normalRenderLoopERK20GLC_RenderPropertiesb@Base 2.2.0
 _ZN8GLC_Mesh16transformVerticeERK13GLC_Matrix4x4@Base 2.2.0
 _ZN8GLC_Mesh17addTrianglesStripEP12GLC_MaterialRK5QListIjEid@Base 2.2.0
 _ZN8GLC_Mesh18loadFromDataStreamER11QDataStreamRK5QHashIjP12GLC_MaterialERKS2_IjjE@Base 2.2.0
 _ZN8GLC_Mesh18setCurrentMaterialEP12GLC_Materialid@Base 2.2.0
 _ZN8GLC_Mesh19copyVboToClientSideEv@Base 2.2.0
 _ZN8GLC_Mesh19primitiveRenderLoopERK20GLC_RenderPropertiesb@Base 2.2.0
 _ZN8GLC_Mesh20createMeshOfGivenLodEi@Base 2.2.0
 _ZN8GLC_Mesh20releaseVboClientSideEb@Base 2.2.0
 _ZN8GLC_Mesh21replaceMasterMaterialEP12GLC_Material@Base 2.2.0
 _ZN8GLC_Mesh22createMeshFromGivenLodEi@Base 2.2.0
 _ZN8GLC_Mesh23bodySelectionRenderLoopEb@Base 2.2.0
 _ZN8GLC_Mesh27OverwriteMaterialRenderLoopERK20GLC_RenderPropertiesb@Base 2.2.0
 _ZN8GLC_Mesh27clearMeshWireAndBoundingBoxEv@Base 2.2.0
 _ZN8GLC_Mesh27primitiveSelectedRenderLoopERK20GLC_RenderPropertiesb@Base 2.2.0
 _ZN8GLC_Mesh28primitiveSelectionRenderLoopEb@Base 2.2.0
 _ZN8GLC_Mesh31OverwriteTransparencyRenderLoopERK20GLC_RenderPropertiesb@Base 2.2.0
 _ZN8GLC_Mesh32vboDrawSelectedPrimitivesGroupOfEP18GLC_PrimitiveGroupP12GLC_MaterialbbRK20GLC_RenderProperties@Base 2.2.0
 _ZN8GLC_Mesh40vertexArrayDrawSelectedPrimitivesGroupOfEP18GLC_PrimitiveGroupP12GLC_MaterialbbRK20GLC_RenderProperties@Base 2.2.0
 _ZN8GLC_Mesh5clearEv@Base 2.2.0
 _ZN8GLC_Mesh6finishEv@Base 2.2.0
 _ZN8GLC_Mesh6glDrawERK20GLC_RenderProperties@Base 2.2.0
 _ZN8GLC_Mesh8chunckIDEv@Base 2.2.0
 _ZN8GLC_Mesh9copyIndexEiPS_R5QHashIjjES3_Rii@Base 2.2.0
 _ZN8GLC_Mesh9finishVboEv@Base 2.2.0
 _ZN8GLC_Mesh9m_ChunkIdE@Base 2.2.0
 _ZN8GLC_MeshC1ERKS_@Base 2.2.0
 _ZN8GLC_MeshC1Ev@Base 2.2.0
 _ZN8GLC_MeshC2ERKS_@Base 2.2.0
 _ZN8GLC_MeshC2Ev@Base 2.2.0
 _ZN8GLC_MeshD0Ev@Base 2.2.0
 _ZN8GLC_MeshD1Ev@Base 2.2.0
 _ZN8GLC_MeshD2Ev@Base 2.2.0
 _ZN8GLC_MeshaSERKS_@Base 2.2.0
 _ZN9GLC_3DRep14reverseNormalsEv@Base 2.2.0
 _ZN9GLC_3DRep15replaceMaterialEjP12GLC_Material@Base 2.2.0
 _ZN9GLC_3DRep19copyVboToClientSideEv@Base 2.2.0
 _ZN9GLC_3DRep20releaseVboClientSideEb@Base 2.2.0
 _ZN9GLC_3DRep22transformSubGeometriesERK13GLC_Matrix4x4@Base 2.2.0
 _ZN9GLC_3DRep4loadEv@Base 2.2.0
 _ZN9GLC_3DRep4takeEPS_@Base 2.2.0
 _ZN9GLC_3DRep5cleanEv@Base 2.2.0
 _ZN9GLC_3DRep5clearEv@Base 2.2.0
 _ZN9GLC_3DRep5mergeEPKS_@Base 2.2.0
 _ZN9GLC_3DRep6unloadEv@Base 2.2.0
 _ZN9GLC_3DRep7replaceEP7GLC_Rep@Base 2.2.0
 _ZN9GLC_3DRep8chunckIDEv@Base 2.2.0
 _ZN9GLC_3DRep9m_ChunkIdE@Base 2.2.0
 _ZN9GLC_3DRepC1EP12GLC_Geometry@Base 2.2.0
 _ZN9GLC_3DRepC1ERKS_@Base 2.2.0
 _ZN9GLC_3DRepC1Ev@Base 2.2.0
 _ZN9GLC_3DRepC2EP12GLC_Geometry@Base 2.2.0
 _ZN9GLC_3DRepC2ERKS_@Base 2.2.0
 _ZN9GLC_3DRepC2Ev@Base 2.2.0
 _ZN9GLC_3DRepD0Ev@Base 2.2.0
 _ZN9GLC_3DRepD1Ev@Base 2.2.0
 _ZN9GLC_3DRepD2Ev@Base 2.2.0
 _ZN9GLC_3DRepaSERK7GLC_Rep@Base 2.2.0
 _ZN9GLC_Arrow10createWireEv@Base 2.2.0
 _ZN9GLC_Arrow10setViewDirERK12GLC_Vector3d@Base 2.2.0
 _ZN9GLC_Arrow11boundingBoxEv@Base 2.2.0
 _ZN9GLC_Arrow11setEndPointERK12GLC_Vector3d@Base 2.2.0
 _ZN9GLC_Arrow12setHeadAngleEd@Base 2.2.0
 _ZN9GLC_Arrow13setHeadLengthEd@Base 2.2.0
 _ZN9GLC_Arrow13setStartPointERK12GLC_Vector3d@Base 2.2.0
 _ZN9GLC_Arrow6glDrawERK20GLC_RenderProperties@Base 2.2.0
 _ZN9GLC_ArrowC1ERK12GLC_Vector3dS2_S2_@Base 2.2.0
 _ZN9GLC_ArrowC1ERKS_@Base 2.2.0
 _ZN9GLC_ArrowC2ERK12GLC_Vector3dS2_S2_@Base 2.2.0
 _ZN9GLC_ArrowC2ERKS_@Base 2.2.0
 _ZN9GLC_ArrowD0Ev@Base 2.2.0
 _ZN9GLC_ArrowD1Ev@Base 2.2.0
 _ZN9GLC_ArrowD2Ev@Base 2.2.0
 _ZN9GLC_ArrowaSERKS_@Base 2.2.0
 _ZN9GLC_BSRep10headerIsOkEv@Base 2.2.0
 _ZN9GLC_BSRep11boundingBoxEv@Base 2.2.0
 _ZN9GLC_BSRep11timeStampOkERK9QDateTime@Base 2.2.0
 _ZN9GLC_BSRep11writeHeaderERK9QDateTime@Base 2.2.0
 _ZN9GLC_BSRep18m_CompressionMutexE@Base 2.2.0
 _ZN9GLC_BSRep19setAbsoluteFileNameERK7QString@Base 2.2.0
 _ZN9GLC_BSRep4openE6QFlagsIN9QIODevice12OpenModeFlagEE@Base 2.2.0
 _ZN9GLC_BSRep4saveERK9GLC_3DRep@Base 2.2.0
 _ZN9GLC_BSRep5closeEv@Base 2.2.0
 _ZN9GLC_BSRep6m_UuidE@Base 2.2.0
 _ZN9GLC_BSRep6suffixEv@Base 2.2.0
 _ZN9GLC_BSRep7loadRepEv@Base 2.2.0
 _ZN9GLC_BSRep8isUsableERK9QDateTime@Base 2.2.0
 _ZN9GLC_BSRep8m_SuffixE@Base 2.2.0
 _ZN9GLC_BSRep9m_VersionE@Base 2.2.0
 _ZN9GLC_BSRepC1ERK7QStringb@Base 2.2.0
 _ZN9GLC_BSRepC1ERKS_@Base 2.2.0
 _ZN9GLC_BSRepC2ERK7QStringb@Base 2.2.0
 _ZN9GLC_BSRepC2ERKS_@Base 2.2.0
 _ZN9GLC_BSRepD0Ev@Base 2.2.0
 _ZN9GLC_BSRepD1Ev@Base 2.2.0
 _ZN9GLC_BSRepD2Ev@Base 2.2.0
 _ZN9GLC_Light10deleteListEv@Base 2.2.0
 _ZN9GLC_Light10m_MaxLightE@Base 2.2.0
 _ZN9GLC_Light11addNewLightEv@Base 2.2.0
 _ZN9GLC_Light11setPositionERK12GLC_Vector3d@Base 2.2.0
 _ZN9GLC_Light11setPositionEfff@Base 2.2.0
 _ZN9GLC_Light11setTwoSidedEb@Base 2.2.0
 _ZN9GLC_Light12creationListEj@Base 2.2.0
 _ZN9GLC_Light13maxLightCountEv@Base 2.2.0
 _ZN9GLC_Light14setSpotEponentEf@Base 2.2.0
 _ZN9GLC_Light15removeThisLightEv@Base 2.2.0
 _ZN9GLC_Light15setAmbientColorERK6QColor@Base 2.2.0
 _ZN9GLC_Light15setDiffuseColorERK6QColor@Base 2.2.0
 _ZN9GLC_Light16setSpecularColorERK6QColor@Base 2.2.0
 _ZN9GLC_Light16setSpotDirectionERK12GLC_Vector3d@Base 2.2.0
 _ZN9GLC_Light18initForThisContextEv@Base 2.2.0
 _ZN9GLC_Light18setSpotCutoffAngleEf@Base 2.2.0
 _ZN9GLC_Light19builtAbleLightCountEP10QGLContext@Base 2.2.0
 _ZN9GLC_Light20setLinearAttenuationEf@Base 2.2.0
 _ZN9GLC_Light22setConstantAttenuationEf@Base 2.2.0
 _ZN9GLC_Light23m_ContextToFreeLightSetE@Base 2.2.0
 _ZN9GLC_Light23setQuadraticAttenuationEf@Base 2.2.0
 _ZN9GLC_Light6enableEv@Base 2.2.0
 _ZN9GLC_Light6glDrawEv@Base 2.2.0
 _ZN9GLC_Light7disableEv@Base 2.2.0
 _ZN9GLC_Light9glExecuteEj@Base 2.2.0
 _ZN9GLC_LightC1ENS_9LightTypeEPK10QGLContextRK6QColor@Base 2.2.0
 _ZN9GLC_LightC1EPK10QGLContextRK6QColor@Base 2.2.0
 _ZN9GLC_LightC1ERKS_@Base 2.2.0
 _ZN9GLC_LightC2ENS_9LightTypeEPK10QGLContextRK6QColor@Base 2.2.0
 _ZN9GLC_LightC2EPK10QGLContextRK6QColor@Base 2.2.0
 _ZN9GLC_LightC2ERKS_@Base 2.2.0
 _ZN9GLC_LightD0Ev@Base 2.2.0
 _ZN9GLC_LightD1Ev@Base 2.2.0
 _ZN9GLC_LightD2Ev@Base 2.2.0
 _ZN9GLC_Mover11qt_metacallEN11QMetaObject4CallEiPPv@Base 2.2.0
 _ZN9GLC_Mover11qt_metacastEPKc@Base 2.2.0
 _ZN9GLC_Mover16staticMetaObjectE@Base 2.2.0
 _ZN9GLC_Mover18initRepresentationEv@Base 2.2.0
 _ZN9GLC_Mover20renderRepresentationEv@Base 2.2.0
 _ZN9GLC_Mover20updateRepresentationEv@Base 2.2.0
 _ZN9GLC_Mover22setRepresentationsListERK5QListIP12GLC_RepMoverE@Base 2.2.0
 _ZN9GLC_Mover24clearMoverRepresentationEv@Base 2.2.0
 _ZN9GLC_Mover4endsEv@Base 2.2.0
 _ZN9GLC_Mover7updatedEv@Base 2.2.0
 _ZN9GLC_MoverC1EP12GLC_ViewportRK5QListIP12GLC_RepMoverE@Base 2.2.0
 _ZN9GLC_MoverC1ERKS_@Base 2.2.0
 _ZN9GLC_MoverC2EP12GLC_ViewportRK5QListIP12GLC_RepMoverE@Base 2.2.0
 _ZN9GLC_MoverC2ERKS_@Base 2.2.0
 _ZN9GLC_MoverD0Ev@Base 2.2.0
 _ZN9GLC_MoverD1Ev@Base 2.2.0
 _ZN9GLC_MoverD2Ev@Base 2.2.0
 _ZN9GLC_Plane8setPlaneERK12GLC_Vector3dS2_@Base 2.2.0
 _ZN9GLC_Plane9normalizeEv@Base 2.2.0
 _ZN9GLC_PlaneC1ERK12GLC_Vector3dS2_@Base 2.2.0
 _ZN9GLC_PlaneC1ERK12GLC_Vector3dS2_S2_@Base 2.2.0
 _ZN9GLC_PlaneC1ERK12GLC_Vector3dd@Base 2.2.0
 _ZN9GLC_PlaneC1ERKS_@Base 2.2.0
 _ZN9GLC_PlaneC1Edddd@Base 2.2.0
 _ZN9GLC_PlaneC1Ev@Base 2.2.0
 _ZN9GLC_PlaneC2ERK12GLC_Vector3dS2_@Base 2.2.0
 _ZN9GLC_PlaneC2ERK12GLC_Vector3dS2_S2_@Base 2.2.0
 _ZN9GLC_PlaneC2ERK12GLC_Vector3dd@Base 2.2.0
 _ZN9GLC_PlaneC2ERKS_@Base 2.2.0
 _ZN9GLC_PlaneC2Edddd@Base 2.2.0
 _ZN9GLC_PlaneC2Ev@Base 2.2.0
 _ZN9GLC_PlaneD1Ev@Base 2.2.0
 _ZN9GLC_PlaneD2Ev@Base 2.2.0
 _ZN9GLC_PlaneaSERKS_@Base 2.2.0
 _ZN9GLC_Point11boundingBoxEv@Base 2.2.0
 _ZN9GLC_Point13setCoordinateERK12GLC_Vector3d@Base 2.2.0
 _ZN9GLC_Point13setCoordinateEddd@Base 2.2.0
 _ZN9GLC_Point6glDrawERK20GLC_RenderProperties@Base 2.2.0
 _ZN9GLC_PointC1ERK12GLC_Vector3d@Base 2.2.0
 _ZN9GLC_PointC1Eddd@Base 2.2.0
 _ZN9GLC_PointC2ERK12GLC_Vector3d@Base 2.2.0
 _ZN9GLC_PointC2Eddd@Base 2.2.0
 _ZN9GLC_PointD0Ev@Base 2.2.0
 _ZN9GLC_PointD1Ev@Base 2.2.0
 _ZN9GLC_State10m_RendererE@Base 2.2.0
 _ZN9GLC_State10m_UseCacheE@Base 2.2.0
 _ZN9GLC_State11cacheIsUsedEv@Base 2.2.0
 _ZN9GLC_State11m_UseShaderE@Base 2.2.0
 _ZN9GLC_State11setVboUsageEb@Base 2.2.0
 _ZN9GLC_State12setGlslUsageEb@Base 2.2.0
 _ZN9GLC_State12vboSupportedEv@Base 2.2.0
 _ZN9GLC_State13glslSupportedEv@Base 2.2.0
 _ZN9GLC_State13setCacheUsageEb@Base 2.2.0
 _ZN9GLC_State13setVboSupportEv@Base 2.2.0
 _ZN9GLC_State14m_CacheManagerE@Base 2.2.0
 _ZN9GLC_State14m_VboSupportedE@Base 2.2.0
 _ZN9GLC_State14setGlslSupportEv@Base 2.2.0
 _ZN9GLC_State14vendorIsNvidiaEv@Base 2.2.0
 _ZN9GLC_State15m_GlslSupportedE@Base 2.2.0
 _ZN9GLC_State16setSelectionModeEb@Base 2.2.0
 _ZN9GLC_State17isInSelectionModeEv@Base 2.2.0
 _ZN9GLC_State18defaultOctreeDepthEv@Base 2.2.0
 _ZN9GLC_State19currentCacheManagerEv@Base 2.2.0
 _ZN9GLC_State19m_IsInSelectionModeE@Base 2.2.0
 _ZN9GLC_State19selectionShaderUsedEv@Base 2.2.0
 _ZN9GLC_State20frameBufferSupportedEv@Base 2.2.0
 _ZN9GLC_State20m_UseSelectionShaderE@Base 2.2.0
 _ZN9GLC_State20pointSpriteSupportedEv@Base 2.2.0
 _ZN9GLC_State20setPixelCullingUsageEb@Base 2.2.0
 _ZN9GLC_State21setDefaultOctreeDepthEi@Base 2.2.0
 _ZN9GLC_State21setFrameBufferSupportEv@Base 2.2.0
 _ZN9GLC_State21setPointSpriteSupportEv@Base 2.2.0
 _ZN9GLC_State22m_PointSpriteSupportedE@Base 2.2.0
 _ZN9GLC_State22setCurrentCacheManagerERK16GLC_CacheManager@Base 2.2.0
 _ZN9GLC_State22setFrustumCullingUsageEb@Base 2.2.0
 _ZN9GLC_State23isPixelCullingActivatedEv@Base 2.2.0
 _ZN9GLC_State23setSelectionShaderUsageEb@Base 2.2.0
 _ZN9GLC_State24m_IsFrameBufferSupportedE@Base 2.2.0
 _ZN9GLC_State24setSpacePartionningUsageEb@Base 2.2.0
 _ZN9GLC_State25isFrustumCullingActivatedEv@Base 2.2.0
 _ZN9GLC_State25m_IsPixelCullingActivatedE@Base 2.2.0
 _ZN9GLC_State27m_IsFrustumCullingActivatedE@Base 2.2.0
 _ZN9GLC_State29isSpacePartitionningActivatedEv@Base 2.2.0
 _ZN9GLC_State31m_IsSpacePartitionningActivatedE@Base 2.2.0
 _ZN9GLC_State4initEv@Base 2.2.0
 _ZN9GLC_State6vendorEv@Base 2.2.0
 _ZN9GLC_State7vboUsedEv@Base 2.2.0
 _ZN9GLC_State7versionEv@Base 2.2.0
 _ZN9GLC_State8glslUsedEv@Base 2.2.0
 _ZN9GLC_State8m_UseVboE@Base 2.2.0
 _ZN9GLC_State8m_VendorE@Base 2.2.0
 _ZN9GLC_State8rendererEv@Base 2.2.0
 _ZN9GLC_State9m_VersionE@Base 2.2.0
 _ZN9GLC_StateD1Ev@Base 2.2.0
 _ZN9GLC_StateD2Ev@Base 2.2.0
 _ZN9GLC_World21mergeWithAnotherWorldERS_@Base 2.2.0
 _ZN9GLC_WorldC1ERKS_@Base 2.2.0
 _ZN9GLC_WorldC1Ev@Base 2.2.0
 _ZN9GLC_WorldC2ERKS_@Base 2.2.0
 _ZN9GLC_WorldC2Ev@Base 2.2.0
 _ZN9GLC_WorldD0Ev@Base 2.2.0
 _ZN9GLC_WorldD1Ev@Base 2.2.0
 _ZN9GLC_WorldD2Ev@Base 2.2.0
 _ZN9GLC_WorldaSERKS_@Base 2.2.0
 _ZN9QHashData8willGrowEv@Base 2.2.0
 _ZNK10GLC_Camera10bottomViewEv@Base 2.2.0
 _ZNK10GLC_Camera15isAlmostEqualToERKS_d@Base 2.2.0
 _ZNK10GLC_Camera7isoViewEv@Base 2.2.0
 _ZNK10GLC_Camera7topViewEv@Base 2.2.0
 _ZNK10GLC_Camera8leftViewEv@Base 2.2.0
 _ZNK10GLC_Camera8rearViewEv@Base 2.2.0
 _ZNK10GLC_Camera9frontViewEv@Base 2.2.0
 _ZNK10GLC_Camera9rightViewEv@Base 2.2.0
 _ZNK10GLC_CameraeqERKS_@Base 2.2.0
 _ZNK10GLC_Circle5cloneEv@Base 2.2.0
 _ZNK10GLC_Shader12canBeDeletedEv@Base 2.2.0
 _ZNK10GLC_Sphere5cloneEv@Base 2.2.0
 _ZNK10QuaZipFile10getZipNameEv@Base 2.2.0
 _ZNK10QuaZipFile10metaObjectEv@Base 2.2.0
 _ZNK10QuaZipFile11setZipErrorEi@Base 2.2.0
 _ZNK10QuaZipFile12isSequentialEv@Base 2.2.0
 _ZNK10QuaZipFile17getActualFileNameEv@Base 2.2.0
 _ZNK10QuaZipFile3posEv@Base 2.2.0
 _ZNK10QuaZipFile4sizeEv@Base 2.2.0
 _ZNK10QuaZipFile5atEndEv@Base 2.2.0
 _ZNK10QuaZipFile5csizeEv@Base 2.2.0
 _ZNK10QuaZipFile5usizeEv@Base 2.2.0
 _ZNK11GLC_Factory10createConeEdd@Base 2.2.0
 _ZNK11GLC_Factory10createLineERK12GLC_Vector3dS2_@Base 2.2.0
 _ZNK11GLC_Factory10metaObjectEv@Base 2.2.0
 _ZNK11GLC_Factory11createPointERK12GLC_Vector3d@Base 2.2.0
 _ZNK11GLC_Factory11createPointEddd@Base 2.2.0
 _ZNK11GLC_Factory12createCircleEdd@Base 2.2.0
 _ZNK11GLC_Factory12createSphereEd@Base 2.2.0
 _ZNK11GLC_Factory13createTextureERK6QImageRK7QString@Base 2.2.0
 _ZNK11GLC_Factory13createTextureERK7QString@Base 2.2.0
 _ZNK11GLC_Factory14createCylinderEdd@Base 2.2.0
 _ZNK11GLC_Factory14createMaterialEP11GLC_Texture@Base 2.2.0
 _ZNK11GLC_Factory14createMaterialEPKf@Base 2.2.0
 _ZNK11GLC_Factory14createMaterialERK6QColor@Base 2.2.0
 _ZNK11GLC_Factory14createMaterialERK6QImage@Base 2.2.0
 _ZNK11GLC_Factory14createMaterialERK7QString@Base 2.2.0
 _ZNK11GLC_Factory14createMaterialEv@Base 2.2.0
 _ZNK11GLC_Factory14currentQuantumEi@Base 2.2.0
 _ZNK11GLC_Factory16createFileLoaderEv@Base 2.2.0
 _ZNK11GLC_Factory17createPointSpriteEfP12GLC_Material@Base 2.2.0
 _ZNK11GLC_Factory19create3DRepFromFileERK7QString@Base 2.2.0
 _ZNK11GLC_Factory19createWorldFromFileER5QFileP11QStringList@Base 2.2.0
 _ZNK11GLC_Factory29createWorldStructureFrom3dxmlER5QFileb@Base 2.2.0
 _ZNK11GLC_Factory9createBoxERK15GLC_BoundingBox@Base 2.2.0
 _ZNK11GLC_Factory9createBoxEddd@Base 2.2.0
 _ZNK11GLC_Frustum14localizeSphereERK12GLC_Vector3dd@Base 2.2.0
 _ZNK11GLC_Frustum19localizeBoundingBoxERK15GLC_BoundingBox@Base 2.2.0
 _ZNK11GLC_Frustum21localizeSphereToPlaneERK12GLC_Vector3ddRK9GLC_Plane@Base 2.2.0
 _ZNK11GLC_TextureeqERKS_@Base 2.2.0
 _ZNK12GLC_3DWidget10metaObjectEv@Base 2.2.0
 _ZNK12GLC_3DWidgeteqERKS_@Base 2.2.0
 _ZNK12GLC_Cylinder5cloneEv@Base 2.2.0
 _ZNK12GLC_FlyMover5cloneEv@Base 2.2.0
 _ZNK12GLC_Geometry11VertexCountEv@Base 2.2.0
 _ZNK12GLC_Geometry9faceCountEi@Base 2.2.0
 _ZNK12GLC_Material12ambientColorEv@Base 2.2.0
 _ZNK12GLC_Material12diffuseColorEv@Base 2.2.0
 _ZNK12GLC_Material13emissiveColorEv@Base 2.2.0
 _ZNK12GLC_Material13specularColorEv@Base 2.2.0
 _ZNK12GLC_Material15textureFileNameEv@Base 2.2.0
 _ZNK12GLC_Material15textureIsLoadedEv@Base 2.2.0
 _ZNK12GLC_Material8hashCodeEv@Base 2.2.0
 _ZNK12GLC_Material9textureIDEv@Base 2.2.0
 _ZNK12GLC_MaterialeqERKS_@Base 2.2.0
 _ZNK12GLC_MeshData11colorVectorEv@Base 2.2.0
 _ZNK12GLC_MeshData11texelVectorEv@Base 2.2.0
 _ZNK12GLC_MeshData12normalVectorEv@Base 2.2.0
 _ZNK12GLC_MeshData14positionVectorEv@Base 2.2.0
 _ZNK12GLC_MeshData6useVBOEbNS_7VboTypeE@Base 2.2.0
 _ZNK12GLC_PanMover5cloneEv@Base 2.2.0
 _ZNK12GLC_TsrMover5cloneEv@Base 2.2.0
 _ZNK12GLC_Vector3deqERKS_@Base 2.2.0
 _ZNK12GLC_Vector4d10toVector2dERKS_@Base 2.2.0
 _ZNK12GLC_Vector4d16getAngleWithVectES_@Base 2.2.0
 _ZNK12GLC_Vector4d8toStringEv@Base 2.2.0
 _ZNK12GLC_Vector4deoERKS_@Base 2.2.0
 _ZNK12GLC_Vector4deqERKS_@Base 2.2.0
 _ZNK12GLC_Viewport11mapPosMouseEdd@Base 2.2.0
 _ZNK12GLC_Viewport16selectionFrustumEii@Base 2.2.0
 _ZNK12GLC_Viewport20mapNormalyzePosMouseEdd@Base 2.2.0
 _ZNK12GLC_Viewport9unProjectEii@Base 2.2.0
 _ZNK12GLC_Viewport9unprojectERK5QListIiE@Base 2.2.0
 _ZNK12GLC_WireData14positionVectorEv@Base 2.2.0
 _ZNK13GLC_Exception4whatEv@Base 2.2.0
 _ZNK13GLC_Matrix4x411determinantEv@Base 2.2.0
 _ZNK13GLC_Matrix4x47toEulerEv@Base 2.2.0
 _ZNK13GLC_Matrix4x48invertedEv@Base 2.2.0
 _ZNK13GLC_Matrix4x48toStringEv@Base 2.2.0
 _ZNK13GLC_Matrix4x4mlERKS_@Base 2.2.0
 _ZNK13GLC_Polylines5cloneEv@Base 2.2.0
 _ZNK13GLC_Rectangle5cloneEv@Base 2.2.0
 _ZNK13GLC_ZoomMover5cloneEv@Base 2.2.0
 _ZNK14GLC_3dsToWorld10metaObjectEv@Base 2.2.0
 _ZNK14GLC_FileLoader10metaObjectEv@Base 2.2.0
 _ZNK14GLC_ObjToWorld10metaObjectEv@Base 2.2.0
 _ZNK14GLC_OffToWorld10metaObjectEv@Base 2.2.0
 _ZNK14GLC_PointCloud5cloneEv@Base 2.2.0
 _ZNK14GLC_StlToWorld10metaObjectEv@Base 2.2.0
 _ZNK15GLC_BoundingBox23intersectBoundingSphereERK12GLC_Vector3d@Base 2.2.0
 _ZNK15GLC_BoundingBox23intersectBoundingSphereERKS_@Base 2.2.0
 _ZNK15GLC_BoundingBox9intersectERK12GLC_Vector3d@Base 2.2.0
 _ZNK15GLC_PointSprite5cloneEv@Base 2.2.0
 _ZNK15GLC_RepFlyMover5cloneEv@Base 2.2.0
 _ZNK15GLC_WorldHandle10referencesEv@Base 2.2.0
 _ZNK15GLC_WorldHandle12numberOfBodyEv@Base 2.2.0
 _ZNK15GLC_WorldHandle19representationCountEv@Base 2.2.0
 _ZNK15GLC_WorldHandle9instancesEv@Base 2.2.0
 _ZNK16GLC_3dxmlToWorld10metaObjectEv@Base 2.2.0
 _ZNK16GLC_CacheManager10isReadableEv@Base 2.2.0
 _ZNK16GLC_CacheManager10isWritableEv@Base 2.2.0
 _ZNK16GLC_CacheManager11binary3DRepERK7QStringS2_@Base 2.2.0
 _ZNK16GLC_CacheManager8isCashedERK7QStringS2_@Base 2.2.0
 _ZNK16GLC_CacheManager8isUsableERK9QDateTimeRK7QStringS5_@Base 2.2.0
 _ZNK16GLC_SelectionSet14occurencesListEv@Base 2.2.0
 _ZNK16GLC_SelectionSet20hasPrimitiveSelectedEj@Base 2.2.0
 _ZNK16GLC_SelectionSet20selectedPrimitivesIdEj@Base 2.2.0
 _ZNK16GLC_SelectionSet35occurencesListWithSelectedPrimitiveEv@Base 2.2.0
 _ZNK16GLC_SelectionSet5countEv@Base 2.2.0
 _ZNK16GLC_SelectionSet7isEmptyEv@Base 2.2.0
 _ZNK16GLC_WorldTo3dxml10metaObjectEv@Base 2.2.0
 _ZNK17GLC_RepCrossMover5cloneEv@Base 2.2.0
 _ZNK18GLC_3DViewInstance8deepCopyEv@Base 2.2.0
 _ZNK18GLC_ColladaToWorld10metaObjectEv@Base 2.2.0
 _ZNK18GLC_SetTargetMover5cloneEv@Base 2.2.0
 _ZNK18GLC_TrackBallMover14mapForTrackingEdd@Base 2.2.0
 _ZNK18GLC_TrackBallMover5cloneEv@Base 2.2.0
 _ZNK18GLC_TurnTableMover5cloneEv@Base 2.2.0
 _ZNK19GLC_MoverController10metaObjectEv@Base 2.2.0
 _ZNK19GLC_OpenGlException4whatEv@Base 2.2.0
 _ZNK19GLC_PullManipulator5cloneEv@Base 2.2.0
 _ZNK19GLC_StructOccurence11boundingBoxEv@Base 2.2.0
 _ZNK19GLC_StructOccurence11materialSetEv@Base 2.2.0
 _ZNK19GLC_StructOccurence13numberOfFacesEv@Base 2.2.0
 _ZNK19GLC_StructOccurence14numberOfVertexEv@Base 2.2.0
 _ZNK19GLC_StructOccurence16subOccurenceListEv@Base 2.2.0
 _ZNK19GLC_StructOccurence17has3DViewInstanceEv@Base 2.2.0
 _ZNK19GLC_StructOccurence17hasRepresentationEv@Base 2.2.0
 _ZNK19GLC_StructOccurence17numberOfMaterialsEv@Base 2.2.0
 _ZNK19GLC_StructOccurence18childrenReferencesEv@Base 2.2.0
 _ZNK19GLC_StructOccurence20canBeAddedToChildrenEPS_@Base 2.2.0
 _ZNK19GLC_StructOccurence5cloneEP15GLC_WorldHandleb@Base 2.2.0
 _ZNK19GLC_StructOccurence9isVisibleEv@Base 2.2.0
 _ZNK19GLC_StructOccurence9nodeCountEv@Base 2.2.0
 _ZNK19GLC_StructReference18representationNameEv@Base 2.2.0
 _ZNK19GLC_StructReference20representationHandleEv@Base 2.2.0
 _ZNK19GLC_StructReference20setOfStructOccurenceEv@Base 2.2.0
 _ZNK19GLC_StructReference21representationIsEmptyEv@Base 2.2.0
 _ZNK19GLC_StructReference22representationFileNameEv@Base 2.2.0
 _ZNK19GLC_StructReference22representationIsLoadedEv@Base 2.2.0
 _ZNK20GLC_3DViewCollection19drawableObjectsSizeEv@Base 2.2.0
 _ZNK20GLC_3DViewCollection24numberOfUsedShadingGroupEv@Base 2.2.0
 _ZNK20GLC_3DViewCollection29instanceNamesFromShadingGroupEj@Base 2.2.0
 _ZNK20GLC_RenderProperties19primitiveIsSelectedEij@Base 2.2.0
 _ZNK20GLC_RenderProperties28needToRenderWithTransparencyEv@Base 2.2.0
 _ZNK20GLC_RenderProperties9isDefaultEv@Base 2.2.0
 _ZNK21GLC_RepTrackBallMover5cloneEv@Base 2.2.0
 _ZNK23GLC_FileFormatException4whatEv@Base 2.2.0
 _ZNK23GLC_RotationManipulator5cloneEv@Base 2.2.0
 _ZNK4QSetI7QStringE6toListEv@Base 2.2.0
 _ZNK5QHashI7QString15QHashDummyValueE8findNodeERKS0_Pj@Base 2.2.0
 _ZNK5QHashI7QStringN18GLC_ColladaToWorld13MatOffsetSizeEE8findNodeERKS0_Pj@Base 2.2.0
 _ZNK5QHashI7QStringP12GLC_MaterialE8findNodeERKS0_Pj@Base 2.2.0
 _ZNK5QHashI7QStringPN14GLC_ObjToWorld13MatOffsetSizeEE8findNodeERKS0_Pj@Base 2.2.0
 _ZNK5QHashI7QStringS0_E8findNodeERKS0_Pj@Base 2.2.0
 _ZNK5QHashIK7QString15QHashDummyValueE8findNodeERS1_Pj@Base 2.2.0
 _ZNK5QHashIK7QString5QListIfEE8findNodeERS1_Pj@Base 2.2.0
 _ZNK5QHashIK7QString9GLC_3DRepE8findNodeERS1_Pj@Base 2.2.0
 _ZNK5QHashIK7QStringN18GLC_ColladaToWorld8AccessorEE8findNodeERS1_Pj@Base 2.2.0
 _ZNK5QHashIK7QStringP12GLC_MaterialE8findNodeERS1_Pj@Base 2.2.0
 _ZNK5QHashIK7QStringP18GLC_StructInstanceE8findNodeERS1_Pj@Base 2.2.0
 _ZNK5QHashIK7QStringP19GLC_StructReferenceE8findNodeERS1_Pj@Base 2.2.0
 _ZNK5QHashIK7QStringP9GLC_3DRepE8findNodeERS1_Pj@Base 2.2.0
 _ZNK5QHashIK7QStringPN18GLC_ColladaToWorld11ColladaNodeEE8findNodeERS1_Pj@Base 2.2.0
 _ZNK5QHashIK7QStringPN18GLC_ColladaToWorld8MeshInfoEE8findNodeERS1_Pj@Base 2.2.0
 _ZNK5QHashIK7QStringS0_E8findNodeERS1_Pj@Base 2.2.0
 _ZNK5QHashIKiP9GLC_MoverE8findNodeERS0_Pj@Base 2.2.0
 _ZNK5QHashIKiPS_IjP18GLC_PrimitiveGroupEE8findNodeERS0_Pj@Base 2.2.0
 _ZNK5QHashIKj7QStringE8findNodeERS0_Pj@Base 2.2.0
 _ZNK5QHashIKj9GLC_3DRepE8findNodeERS0_Pj@Base 2.2.0
 _ZNK5QHashIN14GLC_ObjToWorld10ObjVerticeEjE8findNodeERKS1_Pj@Base 2.2.0
 _ZNK5QHashIN18GLC_ColladaToWorld14ColladaVerticeEjE8findNodeERKS1_Pj@Base 2.2.0
 _ZNK5QHashIP12GLC_MaterialiE8findNodeERKS1_Pj@Base 2.2.0
 _ZNK5QHashIP18GLC_3DViewInstance15QHashDummyValueE8findNodeERKS1_Pj@Base 2.2.0
 _ZNK5QHashIP18GLC_StructInstance15QHashDummyValueE8findNodeERKS1_Pj@Base 2.2.0
 _ZNK5QHashIP19GLC_StructReference15QHashDummyValueE8findNodeERKS1_Pj@Base 2.2.0
 _ZNK5QHashIPK18GLC_StructInstancejE8findNodeERKS2_Pj@Base 2.2.0
 _ZNK5QHashIPK19GLC_StructReferencejE8findNodeERKS2_Pj@Base 2.2.0
 _ZNK5QHashIPK9GLC_3DRepjE8findNodeERKS2_Pj@Base 2.2.0
 _ZNK5QHashIiP4QSetIjEE8findNodeERKiPj@Base 2.2.0
 _ZNK5QHashIiPS_IjP12GLC_MaterialEE8findNodeERKiPj@Base 2.2.0
 _ZNK5QHashIiiE8findNodeERKiPj@Base 2.2.0
 _ZNK5QHashIj15QHashDummyValueE8findNodeERKjPj@Base 2.2.0
 _ZNK5QHashIj18GLC_3DViewInstanceE8findNodeERKjPj@Base 2.2.0
 _ZNK5QHashIj4QSetIjEE8findNodeERKjPj@Base 2.2.0
 _ZNK5QHashIj7QStringE8findNodeERKjPj@Base 2.2.0
 _ZNK5QHashIjP12GLC_3DWidgetE5valueERKj@Base 2.2.0
 _ZNK5QHashIjP12GLC_3DWidgetE8findNodeERKjPj@Base 2.2.0
 _ZNK5QHashIjP12GLC_GeometryE8findNodeERKjPj@Base 2.2.0
 _ZNK5QHashIjP12GLC_MaterialE5valueERKj@Base 2.2.0
 _ZNK5QHashIjP12GLC_MaterialE8findNodeERKjPj@Base 2.2.0
 _ZNK5QHashIjP18GLC_3DViewInstanceE6valuesEv@Base 2.2.0
 _ZNK5QHashIjP18GLC_3DViewInstanceE8findNodeERKjPj@Base 2.2.0
 _ZNK5QHashIjP18GLC_PrimitiveGroupE8findNodeERKjPj@Base 2.2.0
 _ZNK5QHashIjP19GLC_StructOccurenceE8findNodeERKjPj@Base 2.2.0
 _ZNK5QHashIjP19GLC_StructReferenceE8findNodeERKjPj@Base 2.2.0
 _ZNK5QHashIjP9GLC_PlaneE8findNodeERKjPj@Base 2.2.0
 _ZNK5QHashIjPN16GLC_3dxmlToWorld15OccurenceAttribEE8findNodeERKjPj@Base 2.2.0
 _ZNK5QHashIjPS_IjP18GLC_3DViewInstanceEE5valueERKj@Base 2.2.0
 _ZNK5QHashIjPS_IjP18GLC_3DViewInstanceEE8findNodeERKjPj@Base 2.2.0
 _ZNK5QHashIjiE8findNodeERKjPj@Base 2.2.0
 _ZNK5QHashIjjE4keysERKj@Base 2.2.0
 _ZNK5QHashIjjE8findNodeERKjPj@Base 2.2.0
 _ZNK5QListIfE8toVectorEv@Base 2.2.0
 _ZNK5QListIjE5toSetEv@Base 2.2.0
 _ZNK5QListIjE8toVectorEv@Base 2.2.0
 _ZNK6QuaZip10getCommentEv@Base 2.2.0
 _ZNK6QuaZip15getEntriesCountEv@Base 2.2.0
 _ZNK6QuaZip18getCurrentFileInfoEP14QuaZipFileInfo@Base 2.2.0
 _ZNK6QuaZip18getCurrentFileNameEv@Base 2.2.0
 _ZNK7GLC_Box5cloneEv@Base 2.2.0
 _ZNK7GLC_Lod11indexVectorEv@Base 2.2.0
 _ZNK7GLC_Log12fullFileNameEv@Base 2.2.0
 _ZNK7QStringeqEPKc@Base 2.2.0
 _ZNK8GLC_Cone5cloneEv@Base 2.2.0
 _ZNK8GLC_Disc5cloneEv@Base 2.2.0
 _ZNK8GLC_Line5cloneEv@Base 2.2.0
 _ZNK8GLC_Mesh11VertexCountEv@Base 2.2.0
 _ZNK8GLC_Mesh12containsFansEij@Base 2.2.0
 _ZNK8GLC_Mesh12getFansIndexEij@Base 2.2.0
 _ZNK8GLC_Mesh12numberOfFansEij@Base 2.2.0
 _ZNK8GLC_Mesh14containsStripsEij@Base 2.2.0
 _ZNK8GLC_Mesh14getStripsIndexEij@Base 2.2.0
 _ZNK8GLC_Mesh14numberOfStripsEij@Base 2.2.0
 _ZNK8GLC_Mesh16saveToDataStreamER11QDataStream@Base 2.2.0
 _ZNK8GLC_Mesh17containsTrianglesEij@Base 2.2.0
 _ZNK8GLC_Mesh17getTrianglesIndexEij@Base 2.2.0
 _ZNK8GLC_Mesh17numberOfTrianglesEij@Base 2.2.0
 _ZNK8GLC_Mesh5cloneEv@Base 2.2.0
 _ZNK8GLC_Mesh9faceCountEi@Base 2.2.0
 _ZNK9GLC_3DRep11boundingBoxEv@Base 2.2.0
 _ZNK9GLC_3DRep11materialSetEv@Base 2.2.0
 _ZNK9GLC_3DRep11vertexCountEv@Base 2.2.0
 _ZNK9GLC_3DRep13materialCountEv@Base 2.2.0
 _ZNK9GLC_3DRep18boundingBoxIsValidEv@Base 2.2.0
 _ZNK9GLC_3DRep4typeEv@Base 2.2.0
 _ZNK9GLC_3DRep5cloneEv@Base 2.2.0
 _ZNK9GLC_3DRep7isEmptyEv@Base 2.2.0
 _ZNK9GLC_3DRep8deepCopyEv@Base 2.2.0
 _ZNK9GLC_3DRep9faceCountEv@Base 2.2.0
 _ZNK9GLC_Arrow5cloneEv@Base 2.2.0
 _ZNK9GLC_Mover10metaObjectEv@Base 2.2.0
 _ZNK9GLC_Plane8toStringEv@Base 2.2.0
 _ZNK9GLC_PlaneeqES_@Base 2.2.0
 _ZNK9GLC_Point10coordinateEv@Base 2.2.0
 _ZNK9GLC_Point5cloneEv@Base 2.2.0
 _ZTI10GLC_Camera@Base 2.2.0
 _ZTI10GLC_Circle@Base 2.2.0
 _ZTI10GLC_Object@Base 2.2.0
 _ZTI10GLC_Octree@Base 2.2.0
 _ZTI10GLC_Sphere@Base 2.2.0
 _ZTI10QuaZipFile@Base 2.2.0
 _ZTI11GLC_Factory@Base 2.2.0
 _ZTI11GLC_Texture@Base 2.2.0
 _ZTI12GLC_3DWidget@Base 2.2.0
 _ZTI12GLC_Cylinder@Base 2.2.0
 _ZTI12GLC_ErrorLog@Base 2.2.0
 _ZTI12GLC_FlyMover@Base 2.2.0
 _ZTI12GLC_Geometry@Base 2.2.0
 _ZTI12GLC_Material@Base 2.2.0
 _ZTI12GLC_MeshData@Base 2.2.0
 _ZTI12GLC_PanMover@Base 2.2.0
 _ZTI12GLC_RepMover@Base 2.2.0
 _ZTI12GLC_TraceLog@Base 2.2.0
 _ZTI12GLC_TsrMover@Base 2.2.0
 _ZTI12GLC_Viewport@Base 2.2.0
 _ZTI12GLC_WireData@Base 2.2.0
 _ZTI13GLC_Exception@Base 2.2.0
 _ZTI13GLC_Polylines@Base 2.2.0
 _ZTI13GLC_Rectangle@Base 2.2.0
 _ZTI13GLC_UserInput@Base 2.2.0
 _ZTI13GLC_ZoomMover@Base 2.2.0
 _ZTI14GLC_3dsToWorld@Base 2.2.0
 _ZTI14GLC_Attributes@Base 2.2.0
 _ZTI14GLC_FileLoader@Base 2.2.0
 _ZTI14GLC_ObjToWorld@Base 2.2.0
 _ZTI14GLC_OctreeNode@Base 2.2.0
 _ZTI14GLC_OffToWorld@Base 2.2.0
 _ZTI14GLC_PointCloud@Base 2.2.0
 _ZTI14GLC_StlToWorld@Base 2.2.0
 _ZTI15GLC_OpenGLState@Base 2.2.0
 _ZTI15GLC_PointSprite@Base 2.2.0
 _ZTI15GLC_RepFlyMover@Base 2.2.0
 _ZTI16GLC_3dxmlToWorld@Base 2.2.0
 _ZTI16GLC_BSRepToWorld@Base 2.2.0
 _ZTI16GLC_CacheManager@Base 2.2.0
 _ZTI16GLC_CuttingPlane@Base 2.2.0
 _ZTI16GLC_ObjMtlLoader@Base 2.2.0
 _ZTI16GLC_SelectionSet@Base 2.2.0
 _ZTI16GLC_WorldTo3dxml@Base 2.2.0
 _ZTI17GLC_RepCrossMover@Base 2.2.0
 _ZTI18GLC_3DViewInstance@Base 2.2.0
 _ZTI18GLC_ColladaToWorld@Base 2.2.0
 _ZTI18GLC_SetTargetMover@Base 2.2.0
 _ZTI18GLC_StructInstance@Base 2.2.0
 _ZTI18GLC_TrackBallMover@Base 2.2.0
 _ZTI18GLC_TurnTableMover@Base 2.2.0
 _ZTI19GLC_MoverController@Base 2.2.0
 _ZTI19GLC_OpenGlException@Base 2.2.0
 _ZTI19GLC_PullManipulator@Base 2.2.0
 _ZTI19GLC_StructOccurence@Base 2.2.0
 _ZTI19GLC_StructReference@Base 2.2.0
 _ZTI20GLC_3DViewCollection@Base 2.2.0
 _ZTI20GLC_RenderProperties@Base 2.2.0
 _ZTI20GLC_RenderStatistics@Base 2.2.0
 _ZTI21GLC_RepTrackBallMover@Base 2.2.0
 _ZTI21GLC_SpacePartitioning@Base 2.2.0
 _ZTI22GLC_WorldReaderHandler@Base 2.2.0
 _ZTI23GLC_AbstractManipulator@Base 2.2.0
 _ZTI23GLC_FileFormatException@Base 2.2.0
 _ZTI23GLC_RotationManipulator@Base 2.2.0
 _ZTI7GLC_Box@Base 2.2.0
 _ZTI7GLC_Lod@Base 2.2.0
 _ZTI7GLC_Log@Base 2.2.0
 _ZTI7GLC_Rep@Base 2.2.0
 _ZTI8GLC_Axis@Base 2.2.0
 _ZTI8GLC_Cone@Base 2.2.0
 _ZTI8GLC_Disc@Base 2.2.0
 _ZTI8GLC_Line@Base 2.2.0
 _ZTI8GLC_Mesh@Base 2.2.0
 _ZTI9GLC_3DRep@Base 2.2.0
 _ZTI9GLC_Arrow@Base 2.2.0
 _ZTI9GLC_BSRep@Base 2.2.0
 _ZTI9GLC_Light@Base 2.2.0
 _ZTI9GLC_Mover@Base 2.2.0
 _ZTI9GLC_Point@Base 2.2.0
 _ZTI9GLC_World@Base 2.2.0
 _ZTS10GLC_Camera@Base 2.2.0
 _ZTS10GLC_Circle@Base 2.2.0
 _ZTS10GLC_Object@Base 2.2.0
 _ZTS10GLC_Octree@Base 2.2.0
 _ZTS10GLC_Sphere@Base 2.2.0
 _ZTS10QuaZipFile@Base 2.2.0
 _ZTS11GLC_Factory@Base 2.2.0
 _ZTS11GLC_Texture@Base 2.2.0
 _ZTS12GLC_3DWidget@Base 2.2.0
 _ZTS12GLC_Cylinder@Base 2.2.0
 _ZTS12GLC_ErrorLog@Base 2.2.0
 _ZTS12GLC_FlyMover@Base 2.2.0
 _ZTS12GLC_Geometry@Base 2.2.0
 _ZTS12GLC_Material@Base 2.2.0
 _ZTS12GLC_MeshData@Base 2.2.0
 _ZTS12GLC_PanMover@Base 2.2.0
 _ZTS12GLC_RepMover@Base 2.2.0
 _ZTS12GLC_TraceLog@Base 2.2.0
 _ZTS12GLC_TsrMover@Base 2.2.0
 _ZTS12GLC_Viewport@Base 2.2.0
 _ZTS12GLC_WireData@Base 2.2.0
 _ZTS13GLC_Exception@Base 2.2.0
 _ZTS13GLC_Polylines@Base 2.2.0
 _ZTS13GLC_Rectangle@Base 2.2.0
 _ZTS13GLC_UserInput@Base 2.2.0
 _ZTS13GLC_ZoomMover@Base 2.2.0
 _ZTS14GLC_3dsToWorld@Base 2.2.0
 _ZTS14GLC_Attributes@Base 2.2.0
 _ZTS14GLC_FileLoader@Base 2.2.0
 _ZTS14GLC_ObjToWorld@Base 2.2.0
 _ZTS14GLC_OctreeNode@Base 2.2.0
 _ZTS14GLC_OffToWorld@Base 2.2.0
 _ZTS14GLC_PointCloud@Base 2.2.0
 _ZTS14GLC_StlToWorld@Base 2.2.0
 _ZTS15GLC_OpenGLState@Base 2.2.0
 _ZTS15GLC_PointSprite@Base 2.2.0
 _ZTS15GLC_RepFlyMover@Base 2.2.0
 _ZTS16GLC_3dxmlToWorld@Base 2.2.0
 _ZTS16GLC_BSRepToWorld@Base 2.2.0
 _ZTS16GLC_CacheManager@Base 2.2.0
 _ZTS16GLC_CuttingPlane@Base 2.2.0
 _ZTS16GLC_ObjMtlLoader@Base 2.2.0
 _ZTS16GLC_SelectionSet@Base 2.2.0
 _ZTS16GLC_WorldTo3dxml@Base 2.2.0
 _ZTS17GLC_RepCrossMover@Base 2.2.0
 _ZTS18GLC_3DViewInstance@Base 2.2.0
 _ZTS18GLC_ColladaToWorld@Base 2.2.0
 _ZTS18GLC_SetTargetMover@Base 2.2.0
 _ZTS18GLC_StructInstance@Base 2.2.0
 _ZTS18GLC_TrackBallMover@Base 2.2.0
 _ZTS18GLC_TurnTableMover@Base 2.2.0
 _ZTS19GLC_MoverController@Base 2.2.0
 _ZTS19GLC_OpenGlException@Base 2.2.0
 _ZTS19GLC_PullManipulator@Base 2.2.0
 _ZTS19GLC_StructOccurence@Base 2.2.0
 _ZTS19GLC_StructReference@Base 2.2.0
 _ZTS20GLC_3DViewCollection@Base 2.2.0
 _ZTS20GLC_RenderProperties@Base 2.2.0
 _ZTS20GLC_RenderStatistics@Base 2.2.0
 _ZTS21GLC_RepTrackBallMover@Base 2.2.0
 _ZTS21GLC_SpacePartitioning@Base 2.2.0
 _ZTS22GLC_WorldReaderHandler@Base 2.2.0
 _ZTS23GLC_AbstractManipulator@Base 2.2.0
 _ZTS23GLC_FileFormatException@Base 2.2.0
 _ZTS23GLC_RotationManipulator@Base 2.2.0
 _ZTS7GLC_Box@Base 2.2.0
 _ZTS7GLC_Lod@Base 2.2.0
 _ZTS7GLC_Log@Base 2.2.0
 _ZTS7GLC_Rep@Base 2.2.0
 _ZTS8GLC_Axis@Base 2.2.0
 _ZTS8GLC_Cone@Base 2.2.0
 _ZTS8GLC_Disc@Base 2.2.0
 _ZTS8GLC_Line@Base 2.2.0
 _ZTS8GLC_Mesh@Base 2.2.0
 _ZTS9GLC_3DRep@Base 2.2.0
 _ZTS9GLC_Arrow@Base 2.2.0
 _ZTS9GLC_BSRep@Base 2.2.0
 _ZTS9GLC_Light@Base 2.2.0
 _ZTS9GLC_Mover@Base 2.2.0
 _ZTS9GLC_Point@Base 2.2.0
 _ZTS9GLC_World@Base 2.2.0
 _ZTV10GLC_Camera@Base 2.2.0
 _ZTV10GLC_Circle@Base 2.2.0
 _ZTV10GLC_Object@Base 2.2.0
 _ZTV10GLC_Octree@Base 2.2.0
 _ZTV10GLC_Sphere@Base 2.2.0
 _ZTV10QuaZipFile@Base 2.2.0
 _ZTV11GLC_Factory@Base 2.2.0
 _ZTV11GLC_Texture@Base 2.2.0
 _ZTV12GLC_3DWidget@Base 2.2.0
 _ZTV12GLC_Cylinder@Base 2.2.0
 _ZTV12GLC_ErrorLog@Base 2.2.0
 _ZTV12GLC_FlyMover@Base 2.2.0
 _ZTV12GLC_Geometry@Base 2.2.0
 _ZTV12GLC_Material@Base 2.2.0
 _ZTV12GLC_MeshData@Base 2.2.0
 _ZTV12GLC_PanMover@Base 2.2.0
 _ZTV12GLC_RepMover@Base 2.2.0
 _ZTV12GLC_TraceLog@Base 2.2.0
 _ZTV12GLC_TsrMover@Base 2.2.0
 _ZTV12GLC_Viewport@Base 2.2.0
 _ZTV12GLC_WireData@Base 2.2.0
 _ZTV13GLC_Exception@Base 2.2.0
 _ZTV13GLC_Polylines@Base 2.2.0
 _ZTV13GLC_Rectangle@Base 2.2.0
 _ZTV13GLC_UserInput@Base 2.2.0
 _ZTV13GLC_ZoomMover@Base 2.2.0
 _ZTV14GLC_3dsToWorld@Base 2.2.0
 _ZTV14GLC_Attributes@Base 2.2.0
 _ZTV14GLC_FileLoader@Base 2.2.0
 _ZTV14GLC_ObjToWorld@Base 2.2.0
 _ZTV14GLC_OctreeNode@Base 2.2.0
 _ZTV14GLC_OffToWorld@Base 2.2.0
 _ZTV14GLC_PointCloud@Base 2.2.0
 _ZTV14GLC_StlToWorld@Base 2.2.0
 _ZTV15GLC_OpenGLState@Base 2.2.0
 _ZTV15GLC_PointSprite@Base 2.2.0
 _ZTV15GLC_RepFlyMover@Base 2.2.0
 _ZTV16GLC_3dxmlToWorld@Base 2.2.0
 _ZTV16GLC_BSRepToWorld@Base 2.2.0
 _ZTV16GLC_CacheManager@Base 2.2.0
 _ZTV16GLC_CuttingPlane@Base 2.2.0
 _ZTV16GLC_ObjMtlLoader@Base 2.2.0
 _ZTV16GLC_SelectionSet@Base 2.2.0
 _ZTV16GLC_WorldTo3dxml@Base 2.2.0
 _ZTV17GLC_RepCrossMover@Base 2.2.0
 _ZTV18GLC_3DViewInstance@Base 2.2.0
 _ZTV18GLC_ColladaToWorld@Base 2.2.0
 _ZTV18GLC_SetTargetMover@Base 2.2.0
 _ZTV18GLC_StructInstance@Base 2.2.0
 _ZTV18GLC_TrackBallMover@Base 2.2.0
 _ZTV18GLC_TurnTableMover@Base 2.2.0
 _ZTV19GLC_MoverController@Base 2.2.0
 _ZTV19GLC_OpenGlException@Base 2.2.0
 _ZTV19GLC_PullManipulator@Base 2.2.0
 _ZTV19GLC_StructOccurence@Base 2.2.0
 _ZTV19GLC_StructReference@Base 2.2.0
 _ZTV20GLC_3DViewCollection@Base 2.2.0
 _ZTV20GLC_RenderProperties@Base 2.2.0
 _ZTV20GLC_RenderStatistics@Base 2.2.0
 _ZTV21GLC_RepTrackBallMover@Base 2.2.0
 _ZTV21GLC_SpacePartitioning@Base 2.2.0
 _ZTV23GLC_AbstractManipulator@Base 2.2.0
 _ZTV23GLC_FileFormatException@Base 2.2.0
 _ZTV23GLC_RotationManipulator@Base 2.2.0
 _ZTV7GLC_Box@Base 2.2.0
 _ZTV7GLC_Lod@Base 2.2.0
 _ZTV7GLC_Log@Base 2.2.0
 _ZTV7GLC_Rep@Base 2.2.0
 _ZTV8GLC_Axis@Base 2.2.0
 _ZTV8GLC_Cone@Base 2.2.0
 _ZTV8GLC_Disc@Base 2.2.0
 _ZTV8GLC_Line@Base 2.2.0
 _ZTV8GLC_Mesh@Base 2.2.0
 _ZTV9GLC_3DRep@Base 2.2.0
 _ZTV9GLC_Arrow@Base 2.2.0
 _ZTV9GLC_BSRep@Base 2.2.0
 _ZTV9GLC_Light@Base 2.2.0
 _ZTV9GLC_Mover@Base 2.2.0
 _ZTV9GLC_Point@Base 2.2.0
 _ZTV9GLC_World@Base 2.2.0
 _ZeqRK10QStringRefPKc@Base 2.2.0
 _ZlsIfER11QDataStreamS1_RK7QVectorIT_E@Base 2.2.0
 _ZlsIiER11QDataStreamS1_RK7QVectorIT_E@Base 2.2.0
 _ZlsIjER11QDataStreamS1_RK5QListIT_E@Base 2.2.0
 _ZlsIjER11QDataStreamS1_RK7QVectorIT_E@Base 2.2.0
 _ZlsR11QDataStreamRK11GLC_Texture@Base 2.2.0
 _ZlsR11QDataStreamRK12GLC_Material@Base 2.2.0
 _ZlsR11QDataStreamRK12GLC_MeshData@Base 2.2.0
 _ZlsR11QDataStreamRK12GLC_Vector4d@Base 2.2.0
 _ZlsR11QDataStreamRK12GLC_WireData@Base 2.2.0
 _ZlsR11QDataStreamRK15GLC_BoundingBox@Base 2.2.0
 _ZlsR11QDataStreamRK18GLC_PrimitiveGroup@Base 2.2.0
 _ZlsR11QDataStreamRK7GLC_Lod@Base 2.2.0
 _ZlsR11QDataStreamRK9GLC_3DRep@Base 2.2.0
 _ZplPKcRK7QString@Base 2.2.0
 _ZplRK7QStringPKc@Base 2.2.0
 _ZplRK7QStringS1_@Base 2.2.0
 _ZrsI12GLC_MaterialER11QDataStreamS2_R5QListIT_E@Base 2.2.0
 _ZrsI18GLC_PrimitiveGroupER11QDataStreamS2_R5QListIT_E@Base 2.2.0
 _ZrsI5QListI18GLC_PrimitiveGroupEER11QDataStreamS4_RS0_IT_E@Base 2.2.0
 _ZrsI7GLC_LodER11QDataStreamS2_R5QListIT_E@Base 2.2.0
 _ZrsIfER11QDataStreamS1_R7QVectorIT_E@Base 2.2.0
 _ZrsIiER11QDataStreamS1_R5QListIT_E@Base 2.2.0
 _ZrsIiER11QDataStreamS1_R7QVectorIT_E@Base 2.2.0
 _ZrsIjER11QDataStreamS1_R5QListIT_E@Base 2.2.0
 _ZrsIjER11QDataStreamS1_R7QVectorIT_E@Base 2.2.0
 _ZrsR11QDataStreamR11GLC_Texture@Base 2.2.0
 _ZrsR11QDataStreamR12GLC_Material@Base 2.2.0
 _ZrsR11QDataStreamR12GLC_MeshData@Base 2.2.0
 _ZrsR11QDataStreamR12GLC_Vector4d@Base 2.2.0
 _ZrsR11QDataStreamR12GLC_WireData@Base 2.2.0
 _ZrsR11QDataStreamR15GLC_BoundingBox@Base 2.2.0
 _ZrsR11QDataStreamR18GLC_PrimitiveGroup@Base 2.2.0
 _ZrsR11QDataStreamR7GLC_Lod@Base 2.2.0
 _ZrsR11QDataStreamR9GLC_3DRep@Base 2.2.0
 _lib3ds_matrix_add@Base 2.2.0
 _lib3ds_matrix_sub@Base 2.2.0
 fclose_file_func@Base 2.2.0
 ferror_file_func@Base 2.2.0
 fill_fopen_filefunc@Base 2.2.0
 fopen_file_func@Base 2.2.0
 fread_file_func@Base 2.2.0
 fseek_file_func@Base 2.2.0
 ftell_file_func@Base 2.2.0
 fwrite_file_func@Base 2.2.0
 glBindBuffer@Base 2.2.0
 glBufferData@Base 2.2.0
 glBufferSubData@Base 2.2.0
 glDeleteBuffers@Base 2.2.0
 glGenBuffers@Base 2.2.0
 glGetBufferParameteriv@Base 2.2.0
 glGetBufferPointerv@Base 2.2.0
 glGetBufferSubData@Base 2.2.0
 glIsBuffer@Base 2.2.0
 glMapBuffer@Base 2.2.0
 glMultiDrawElements@Base 2.2.0
 glPointParameterf@Base 2.2.0
 glPointParameterfv@Base 2.2.0
 glUnmapBuffer@Base 2.2.0
 lib3ds_atmosphere_read@Base 2.2.0
 lib3ds_atmosphere_write@Base 2.2.0
 lib3ds_background_read@Base 2.2.0
 lib3ds_background_write@Base 2.2.0
 lib3ds_boolTrack_dump@Base 2.2.0
 lib3ds_bool_key_free@Base 2.2.0
 lib3ds_bool_key_new@Base 2.2.0
 lib3ds_bool_track_eval@Base 2.2.0
 lib3ds_bool_track_free_keys@Base 2.2.0
 lib3ds_bool_track_insert@Base 2.2.0
 lib3ds_bool_track_read@Base 2.2.0
 lib3ds_bool_track_remove@Base 2.2.0
 lib3ds_bool_track_write@Base 2.2.0
 lib3ds_camera_dump@Base 2.2.0
 lib3ds_camera_free@Base 2.2.0
 lib3ds_camera_new@Base 2.2.0
 lib3ds_camera_read@Base 2.2.0
 lib3ds_camera_write@Base 2.2.0
 lib3ds_chunk_dump_info@Base 2.2.0
 lib3ds_chunk_enable_dump@Base 2.2.0
 lib3ds_chunk_name@Base 2.2.0
 lib3ds_chunk_read@Base 2.2.0
 lib3ds_chunk_read_end@Base 2.2.0
 lib3ds_chunk_read_next@Base 2.2.0
 lib3ds_chunk_read_reset@Base 2.2.0
 lib3ds_chunk_read_start@Base 2.2.0
 lib3ds_chunk_read_tell@Base 2.2.0
 lib3ds_chunk_unknown@Base 2.2.0
 lib3ds_chunk_write@Base 2.2.0
 lib3ds_chunk_write_end@Base 2.2.0
 lib3ds_chunk_write_start@Base 2.2.0
 lib3ds_chunk_write_switch@Base 2.2.0
 lib3ds_dump_tracks@Base 2.2.0
 lib3ds_ease@Base 2.2.0
 lib3ds_file_bounding_box_of_nodes@Base 2.2.0
 lib3ds_file_bounding_box_of_objects@Base 2.2.0
 lib3ds_file_camera_by_name@Base 2.2.0
 lib3ds_file_dump_cameras@Base 2.2.0
 lib3ds_file_dump_instances@Base 2.2.0
 lib3ds_file_dump_lights@Base 2.2.0
 lib3ds_file_dump_materials@Base 2.2.0
 lib3ds_file_dump_meshes@Base 2.2.0
 lib3ds_file_dump_nodes@Base 2.2.0
 lib3ds_file_eval@Base 2.2.0
 lib3ds_file_free@Base 2.2.0
 lib3ds_file_insert_camera@Base 2.2.0
 lib3ds_file_insert_light@Base 2.2.0
 lib3ds_file_insert_material@Base 2.2.0
 lib3ds_file_insert_mesh@Base 2.2.0
 lib3ds_file_insert_node@Base 2.2.0
 lib3ds_file_light_by_name@Base 2.2.0
 lib3ds_file_load@Base 2.2.0
 lib3ds_file_material_by_name@Base 2.2.0
 lib3ds_file_mesh_by_name@Base 2.2.0
 lib3ds_file_new@Base 2.2.0
 lib3ds_file_node_by_id@Base 2.2.0
 lib3ds_file_node_by_name@Base 2.2.0
 lib3ds_file_read@Base 2.2.0
 lib3ds_file_remove_camera@Base 2.2.0
 lib3ds_file_remove_light@Base 2.2.0
 lib3ds_file_remove_material@Base 2.2.0
 lib3ds_file_remove_mesh@Base 2.2.0
 lib3ds_file_remove_node@Base 2.2.0
 lib3ds_file_save@Base 2.2.0
 lib3ds_file_write@Base 2.2.0
 lib3ds_io_error@Base 2.2.0
 lib3ds_io_free@Base 2.2.0
 lib3ds_io_new@Base 2.2.0
 lib3ds_io_read@Base 2.2.0
 lib3ds_io_read_byte@Base 2.2.0
 lib3ds_io_read_dword@Base 2.2.0
 lib3ds_io_read_float@Base 2.2.0
 lib3ds_io_read_intb@Base 2.2.0
 lib3ds_io_read_intd@Base 2.2.0
 lib3ds_io_read_intw@Base 2.2.0
 lib3ds_io_read_rgb@Base 2.2.0
 lib3ds_io_read_string@Base 2.2.0
 lib3ds_io_read_vector@Base 2.2.0
 lib3ds_io_read_word@Base 2.2.0
 lib3ds_io_seek@Base 2.2.0
 lib3ds_io_tell@Base 2.2.0
 lib3ds_io_write@Base 2.2.0
 lib3ds_io_write_byte@Base 2.2.0
 lib3ds_io_write_dword@Base 2.2.0
 lib3ds_io_write_float@Base 2.2.0
 lib3ds_io_write_intb@Base 2.2.0
 lib3ds_io_write_intd@Base 2.2.0
 lib3ds_io_write_intw@Base 2.2.0
 lib3ds_io_write_rgb@Base 2.2.0
 lib3ds_io_write_string@Base 2.2.0
 lib3ds_io_write_vector@Base 2.2.0
 lib3ds_io_write_word@Base 2.2.0
 lib3ds_light_dump@Base 2.2.0
 lib3ds_light_free@Base 2.2.0
 lib3ds_light_new@Base 2.2.0
 lib3ds_light_read@Base 2.2.0
 lib3ds_light_write@Base 2.2.0
 lib3ds_lin1Track_dump@Base 2.2.0
 lib3ds_lin1_key_free@Base 2.2.0
 lib3ds_lin1_key_new@Base 2.2.0
 lib3ds_lin1_key_setup@Base 2.2.0
 lib3ds_lin1_track_eval@Base 2.2.0
 lib3ds_lin1_track_free_keys@Base 2.2.0
 lib3ds_lin1_track_insert@Base 2.2.0
 lib3ds_lin1_track_read@Base 2.2.0
 lib3ds_lin1_track_remove@Base 2.2.0
 lib3ds_lin1_track_setup@Base 2.2.0
 lib3ds_lin1_track_write@Base 2.2.0
 lib3ds_lin3Track_dump@Base 2.2.0
 lib3ds_lin3_key_free@Base 2.2.0
 lib3ds_lin3_key_new@Base 2.2.0
 lib3ds_lin3_key_setup@Base 2.2.0
 lib3ds_lin3_track_eval@Base 2.2.0
 lib3ds_lin3_track_free_keys@Base 2.2.0
 lib3ds_lin3_track_insert@Base 2.2.0
 lib3ds_lin3_track_read@Base 2.2.0
 lib3ds_lin3_track_remove@Base 2.2.0
 lib3ds_lin3_track_setup@Base 2.2.0
 lib3ds_lin3_track_write@Base 2.2.0
 lib3ds_material_dump@Base 2.2.0
 lib3ds_material_free@Base 2.2.0
 lib3ds_material_new@Base 2.2.0
 lib3ds_material_read@Base 2.2.0
 lib3ds_material_write@Base 2.2.0
 lib3ds_matrix_abs@Base 2.2.0
 lib3ds_matrix_adjoint@Base 2.2.0
 lib3ds_matrix_camera@Base 2.2.0
 lib3ds_matrix_copy@Base 2.2.0
 lib3ds_matrix_det@Base 2.2.0
 lib3ds_matrix_dump@Base 2.2.0
 lib3ds_matrix_identity@Base 2.2.0
 lib3ds_matrix_inv@Base 2.2.0
 lib3ds_matrix_mult@Base 2.2.0
 lib3ds_matrix_neg@Base 2.2.0
 lib3ds_matrix_rotate@Base 2.2.0
 lib3ds_matrix_rotate_axis@Base 2.2.0
 lib3ds_matrix_rotate_x@Base 2.2.0
 lib3ds_matrix_rotate_y@Base 2.2.0
 lib3ds_matrix_rotate_z@Base 2.2.0
 lib3ds_matrix_scalar@Base 2.2.0
 lib3ds_matrix_scale@Base 2.2.0
 lib3ds_matrix_scale_xyz@Base 2.2.0
 lib3ds_matrix_translate@Base 2.2.0
 lib3ds_matrix_translate_xyz@Base 2.2.0
 lib3ds_matrix_transpose@Base 2.2.0
 lib3ds_matrix_zero@Base 2.2.0
 lib3ds_mesh_bounding_box@Base 2.2.0
 lib3ds_mesh_calculate_normals@Base 2.2.0
 lib3ds_mesh_dump@Base 2.2.0
 lib3ds_mesh_free@Base 2.2.0
 lib3ds_mesh_free_face_list@Base 2.2.0
 lib3ds_mesh_free_flag_list@Base 2.2.0
 lib3ds_mesh_free_point_list@Base 2.2.0
 lib3ds_mesh_free_texel_list@Base 2.2.0
 lib3ds_mesh_new@Base 2.2.0
 lib3ds_mesh_new_face_list@Base 2.2.0
 lib3ds_mesh_new_flag_list@Base 2.2.0
 lib3ds_mesh_new_point_list@Base 2.2.0
 lib3ds_mesh_new_texel_list@Base 2.2.0
 lib3ds_mesh_read@Base 2.2.0
 lib3ds_mesh_write@Base 2.2.0
 lib3ds_morphTrack_dump@Base 2.2.0
 lib3ds_morph_key_free@Base 2.2.0
 lib3ds_morph_key_new@Base 2.2.0
 lib3ds_morph_track_eval@Base 2.2.0
 lib3ds_morph_track_free_keys@Base 2.2.0
 lib3ds_morph_track_insert@Base 2.2.0
 lib3ds_morph_track_read@Base 2.2.0
 lib3ds_morph_track_remove@Base 2.2.0
 lib3ds_morph_track_write@Base 2.2.0
 lib3ds_node_by_id@Base 2.2.0
 lib3ds_node_by_name@Base 2.2.0
 lib3ds_node_dump@Base 2.2.0
 lib3ds_node_eval@Base 2.2.0
 lib3ds_node_free@Base 2.2.0
 lib3ds_node_new_ambient@Base 2.2.0
 lib3ds_node_new_camera@Base 2.2.0
 lib3ds_node_new_light@Base 2.2.0
 lib3ds_node_new_object@Base 2.2.0
 lib3ds_node_new_spot@Base 2.2.0
 lib3ds_node_new_target@Base 2.2.0
 lib3ds_node_read@Base 2.2.0
 lib3ds_node_write@Base 2.2.0
 lib3ds_quatTrack_dump@Base 2.2.0
 lib3ds_quat_abs@Base 2.2.0
 lib3ds_quat_axis_angle@Base 2.2.0
 lib3ds_quat_cnj@Base 2.2.0
 lib3ds_quat_copy@Base 2.2.0
 lib3ds_quat_dot@Base 2.2.0
 lib3ds_quat_dump@Base 2.2.0
 lib3ds_quat_exp@Base 2.2.0
 lib3ds_quat_identity@Base 2.2.0
 lib3ds_quat_inv@Base 2.2.0
 lib3ds_quat_key_free@Base 2.2.0
 lib3ds_quat_key_new@Base 2.2.0
 lib3ds_quat_key_setup@Base 2.2.0
 lib3ds_quat_length@Base 2.2.0
 lib3ds_quat_ln@Base 2.2.0
 lib3ds_quat_ln_dif@Base 2.2.0
 lib3ds_quat_mul@Base 2.2.0
 lib3ds_quat_neg@Base 2.2.0
 lib3ds_quat_normalize@Base 2.2.0
 lib3ds_quat_scalar@Base 2.2.0
 lib3ds_quat_slerp@Base 2.2.0
 lib3ds_quat_squad@Base 2.2.0
 lib3ds_quat_squared@Base 2.2.0
 lib3ds_quat_tangent@Base 2.2.0
 lib3ds_quat_track_eval@Base 2.2.0
 lib3ds_quat_track_free_keys@Base 2.2.0
 lib3ds_quat_track_insert@Base 2.2.0
 lib3ds_quat_track_read@Base 2.2.0
 lib3ds_quat_track_remove@Base 2.2.0
 lib3ds_quat_track_setup@Base 2.2.0
 lib3ds_quat_track_write@Base 2.2.0
 lib3ds_quat_zero@Base 2.2.0
 lib3ds_shadow_read@Base 2.2.0
 lib3ds_shadow_write@Base 2.2.0
 lib3ds_tcb@Base 2.2.0
 lib3ds_tcb_read@Base 2.2.0
 lib3ds_tcb_write@Base 2.2.0
 lib3ds_vector_add@Base 2.2.0
 lib3ds_vector_copy@Base 2.2.0
 lib3ds_vector_cross@Base 2.2.0
 lib3ds_vector_cubic@Base 2.2.0
 lib3ds_vector_dot@Base 2.2.0
 lib3ds_vector_dump@Base 2.2.0
 lib3ds_vector_length@Base 2.2.0
 lib3ds_vector_max@Base 2.2.0
 lib3ds_vector_min@Base 2.2.0
 lib3ds_vector_neg@Base 2.2.0
 lib3ds_vector_normal@Base 2.2.0
 lib3ds_vector_normalize@Base 2.2.0
 lib3ds_vector_scalar@Base 2.2.0
 lib3ds_vector_squared@Base 2.2.0
 lib3ds_vector_sub@Base 2.2.0
 lib3ds_vector_transform@Base 2.2.0
 lib3ds_vector_zero@Base 2.2.0
 lib3ds_viewport_dump@Base 2.2.0
 lib3ds_viewport_read@Base 2.2.0
 lib3ds_viewport_set_views@Base 2.2.0
 lib3ds_viewport_write@Base 2.2.0
 tcb_dump@Base 2.2.0
 unzClose@Base 2.2.0
 unzCloseCurrentFile@Base 2.2.0
 unzGetCurrentFileInfo@Base 2.2.0
 unzGetFilePos@Base 2.2.0
 unzGetGlobalComment@Base 2.2.0
 unzGetGlobalInfo@Base 2.2.0
 unzGetLocalExtrafield@Base 2.2.0
 unzGetOffset@Base 2.2.0
 unzGoToFilePos@Base 2.2.0
 unzGoToFirstFile@Base 2.2.0
 unzGoToNextFile@Base 2.2.0
 unzLocateFile@Base 2.2.0
 unzOpen2@Base 2.2.0
 unzOpen@Base 2.2.0
 unzOpenCurrentFile2@Base 2.2.0
 unzOpenCurrentFile3@Base 2.2.0
 unzOpenCurrentFile@Base 2.2.0
 unzOpenCurrentFilePassword@Base 2.2.0
 unzReadCurrentFile@Base 2.2.0
 unzSetOffset@Base 2.2.0
 unzStringFileNameCompare@Base 2.2.0
 unz_copyright@Base 2.2.0
 unzeof@Base 2.2.0
 unztell@Base 2.2.0
 zipClose@Base 2.2.0
 zipCloseFileInZip@Base 2.2.0
 zipCloseFileInZipRaw@Base 2.2.0
 zipOpen2@Base 2.2.0
 zipOpen@Base 2.2.0
 zipOpenNewFileInZip2@Base 2.2.0
 zipOpenNewFileInZip3@Base 2.2.0
 zipOpenNewFileInZip@Base 2.2.0
 zipWriteInFileInZip@Base 2.2.0
 zip_copyright@Base 2.2.0
